Component: ARM Compiler 5.06 update 1 (build 61) Tool: armlink [4d35a8]

==============================================================================

Section Cross References

    application.o(.text) refers to platform.o(.text) for rt_platform_init
    application.o(.text) refers to components.o(.text) for rt_components_init
    application.o(.text) refers to thread.o(.text) for rt_thread_create
    mnttable.o(.constdata) refers to mnttable.o(.conststring) for .conststring
    startup.o(.text) refers to kservice.o(.text) for rt_kprintf
    startup.o(.text) refers to board.o(.text) for rt_hw_board_init
    startup.o(.text) refers to mem.o(.text) for rt_system_heap_init
    startup.o(.text) refers to scheduler.o(.text) for rt_system_scheduler_init
    startup.o(.text) refers to timer.o(.text) for rt_system_timer_thread_init
    startup.o(.text) refers to application.o(.text) for rt_application_init
    startup.o(.text) refers to idle.o(.text) for rt_thread_idle_init
    startup.o(.text) refers to context_rvds.o(.text) for rt_hw_interrupt_disable
    board.o(.text) refers to misc.o(.text) for NVIC_SetVectorTable
    board.o(.text) refers to irq.o(.text) for rt_interrupt_enter
    board.o(.text) refers to clock.o(.text) for rt_tick_increase
    board.o(.text) refers to stm32f4xx_rcc.o(.text) for RCC_AHB1PeriphClockCmd
    board.o(.text) refers to stm32f4xx_gpio.o(.text) for GPIO_PinAFConfig
    board.o(.text) refers to components.o(.text) for rt_components_board_init
    board.o(.text) refers to kservice.o(.text) for rt_console_set_device
    board.o(.text) refers to system_stm32f4xx.o(.data) for SystemCoreClock
    board.o(FSymTab) refers to board.o(.constdata) for __fsym_reset_name
    board.o(FSymTab) refers to board.o(.text) for reset
    platform.o(.text) refers to stm32f4xx_rcc.o(.text) for RCC_AHB1PeriphClockCmd
    platform.o(.text) refers to stm32f4xx_gpio.o(.text) for GPIO_Init
    platform.o(.text) refers to stm32f20x_40x_spi.o(.text) for stm32_spi_register
    platform.o(.text) refers to spi_core.o(.text) for rt_spi_bus_attach_device
    platform.o(.text) refers to spi_flash_w25qxx.o(.text) for w25qxx_init
    platform.o(.text) refers to sdio_sd.o(.text) for rt_hw_sdcard_init
    platform.o(.text) refers to thread.o(.text) for rt_thread_delay
    platform.o(.text) refers to device.o(.text) for rt_device_init_all
    platform.o(.text) refers to platform.o(.bss) for stm32_spi
    platform.o(.text) refers to platform.o(.data) for spi_cs
    platform.o(.rti_fn.1) refers to platform.o(.text) for rt_hw_spi2_init
    usart.o(.text) refers to kservice.o(.text) for rt_kprintf
    usart.o(.text) refers to stm32f4xx_usart.o(.text) for USART_Init
    usart.o(.text) refers to irq.o(.text) for rt_interrupt_enter
    usart.o(.text) refers to serial.o(.text) for rt_hw_serial_isr
    usart.o(.text) refers to stm32f4xx_rcc.o(.text) for RCC_AHB1PeriphClockCmd
    usart.o(.text) refers to stm32f4xx_gpio.o(.text) for GPIO_Init
    usart.o(.text) refers to misc.o(.text) for NVIC_Init
    usart.o(.text) refers to usart.o(.constdata) for __FUNCTION__
    usart.o(.text) refers to usart.o(.data) for uart3
    usart.o(.text) refers to usart.o(.bss) for serial3
    usart.o(.constdata) refers to usart.o(.text) for stm32_configure
    usart.o(.rti_fn.1) refers to usart.o(.text) for rt_hw_usart_init
    stm32f4xx_it.o(.text) refers to stm32f4xx_exti.o(.text) for EXTI_GetITStatus
    sdio_sd.o(.text) refers to stm32f4xx_sdio.o(.text) for SDIO_ClockCmd
    sdio_sd.o(.text) refers to stm32f4xx_rcc.o(.text) for RCC_APB2PeriphClockCmd
    sdio_sd.o(.text) refers to stm32f4xx_gpio.o(.text) for GPIO_PinAFConfig
    sdio_sd.o(.text) refers to stm32f4xx_dma.o(.text) for DMA_ClearFlag
    sdio_sd.o(.text) refers to sdio_sd.o(.bss) for SDIO_CmdInitStructure
    sdio_sd.o(.text) refers to sdio_sd.o(.data) for RCA
    sdio_sd.o(.text) refers to ipc.o(.text) for rt_sem_init
    sdio_sd.o(.text) refers to kservice.o(.text) for rt_kprintf
    sdio_sd.o(.text) refers to rt_memcpy_v6.o(.text) for __aeabi_memcpy
    sdio_sd.o(.text) refers to misc.o(.text) for NVIC_Init
    sdio_sd.o(.text) refers to device.o(.text) for rt_device_register
    sdio_sd.o(.text) refers to irq.o(.text) for rt_interrupt_enter
    sdio_sd.o(.text) refers to sdio_sd.o(.constdata) for __FUNCTION__
    stm32f20x_40x_spi.o(.text) refers to stm32f4xx_spi.o(.text) for SPI_StructInit
    stm32f20x_40x_spi.o(.text) refers to stm32f4xx_gpio.o(.text) for GPIO_ResetBits
    stm32f20x_40x_spi.o(.text) refers to stm32f4xx_rcc.o(.text) for RCC_APB2PeriphClockCmd
    stm32f20x_40x_spi.o(.text) refers to spi_core.o(.text) for rt_spi_bus_register
    stm32f20x_40x_spi.o(.text) refers to system_stm32f4xx.o(.data) for SystemCoreClock
    stm32f20x_40x_spi.o(.text) refers to stm32f20x_40x_spi.o(.data) for stm32_spi_ops
    stm32f20x_40x_spi.o(.data) refers to stm32f20x_40x_spi.o(.text) for configure
    spi_flash_w25qxx.o(.text) refers to ipc.o(.text) for rt_mutex_take
    spi_flash_w25qxx.o(.text) refers to spi_core.o(.text) for rt_spi_send_then_recv
    spi_flash_w25qxx.o(.text) refers to kservice.o(.text) for rt_kprintf
    spi_flash_w25qxx.o(.text) refers to device.o(.text) for rt_device_find
    spi_flash_w25qxx.o(.text) refers to spi_flash_w25qxx.o(.bss) for spi_flash_device
    spi_flash_w25qxx.o(.text) refers to spi_flash_w25qxx.o(.constdata) for __FUNCTION__
    stm32f4_rtc.o(.text) refers to kservice.o(.text) for rt_kprintf
    stm32f4_rtc.o(.text) refers to rt_memclr_w.o(.text) for __aeabi_memclr4
    stm32f4_rtc.o(.text) refers to stm32f4xx_rtc.o(.text) for RTC_GetTime
    stm32f4_rtc.o(.text) refers to mktime.o(.text) for mktime
    stm32f4_rtc.o(.text) refers to localtime.o(.text) for localtime
    stm32f4_rtc.o(.text) refers to stm32f4xx_pwr.o(.text) for PWR_BackupAccessCmd
    stm32f4_rtc.o(.text) refers to stm32f4xx_rcc.o(.text) for RCC_APB1PeriphClockCmd
    stm32f4_rtc.o(.text) refers to device.o(.text) for rt_device_register
    stm32f4_rtc.o(.text) refers to rtc.o(.text) for list_date
    stm32f4_rtc.o(.text) refers to stm32f4_rtc.o(.constdata) for __FUNCTION__
    stm32f4_rtc.o(.text) refers to stm32f4_rtc.o(.data) for BKPDataReg
    stm32f4_rtc.o(.text) refers to stm32f4_rtc.o(.bss) for rtc
    stm32f4_rtc.o(.rti_fn.2) refers to stm32f4_rtc.o(.text) for rt_hw_rtc_init
    system_stm32f4xx.o(.text) refers to system_stm32f4xx.o(.data) for SystemCoreClock
    misc.o(.text) refers to startup.o(.text) for assert_failed
    stm32f4xx_adc.o(.text) refers to stm32f4xx_rcc.o(.text) for RCC_APB2PeriphResetCmd
    stm32f4xx_adc.o(.text) refers to startup.o(.text) for assert_failed
    stm32f4xx_adc.o(.text) refers to stm32f4xx_adc.o(.conststring) for .conststring
    stm32f4xx_can.o(.text) refers to startup.o(.text) for assert_failed
    stm32f4xx_can.o(.text) refers to stm32f4xx_rcc.o(.text) for RCC_APB1PeriphResetCmd
    stm32f4xx_can.o(.text) refers to stm32f4xx_can.o(.conststring) for .conststring
    stm32f4xx_cryp.o(.text) refers to stm32f4xx_rcc.o(.text) for RCC_AHB2PeriphResetCmd
    stm32f4xx_cryp.o(.text) refers to startup.o(.text) for assert_failed
    stm32f4xx_cryp.o(.text) refers to stm32f4xx_cryp.o(.conststring) for .conststring
    stm32f4xx_cryp_aes.o(.text) refers to stm32f4xx_cryp.o(.text) for CRYP_KeyStructInit
    stm32f4xx_cryp_des.o(.text) refers to stm32f4xx_cryp.o(.text) for CRYP_KeyStructInit
    stm32f4xx_cryp_tdes.o(.text) refers to stm32f4xx_cryp.o(.text) for CRYP_KeyStructInit
    stm32f4xx_dac.o(.text) refers to stm32f4xx_rcc.o(.text) for RCC_APB1PeriphResetCmd
    stm32f4xx_dac.o(.text) refers to startup.o(.text) for assert_failed
    stm32f4xx_dac.o(.text) refers to stm32f4xx_dac.o(.conststring) for .conststring
    stm32f4xx_dbgmcu.o(.text) refers to startup.o(.text) for assert_failed
    stm32f4xx_dbgmcu.o(.text) refers to stm32f4xx_dbgmcu.o(.conststring) for .conststring
    stm32f4xx_dcmi.o(.text) refers to startup.o(.text) for assert_failed
    stm32f4xx_dcmi.o(.text) refers to stm32f4xx_dcmi.o(.conststring) for .conststring
    stm32f4xx_dma.o(.text) refers to startup.o(.text) for assert_failed
    stm32f4xx_dma.o(.text) refers to stm32f4xx_dma.o(.conststring) for .conststring
    stm32f4xx_exti.o(.text) refers to startup.o(.text) for assert_failed
    stm32f4xx_exti.o(.text) refers to stm32f4xx_exti.o(.conststring) for .conststring
    stm32f4xx_flash.o(.text) refers to startup.o(.text) for assert_failed
    stm32f4xx_flash.o(.text) refers to stm32f4xx_flash.o(.conststring) for .conststring
    stm32f4xx_fsmc.o(.text) refers to startup.o(.text) for assert_failed
    stm32f4xx_fsmc.o(.text) refers to stm32f4xx_fsmc.o(.conststring) for .conststring
    stm32f4xx_gpio.o(.text) refers to startup.o(.text) for assert_failed
    stm32f4xx_gpio.o(.text) refers to stm32f4xx_rcc.o(.text) for RCC_AHB1PeriphResetCmd
    stm32f4xx_gpio.o(.text) refers to stm32f4xx_gpio.o(.conststring) for .conststring
    stm32f4xx_hash.o(.text) refers to stm32f4xx_rcc.o(.text) for RCC_AHB2PeriphResetCmd
    stm32f4xx_hash.o(.text) refers to startup.o(.text) for assert_failed
    stm32f4xx_hash.o(.text) refers to stm32f4xx_hash.o(.conststring) for .conststring
    stm32f4xx_hash_md5.o(.text) refers to stm32f4xx_hash.o(.text) for HASH_DeInit
    stm32f4xx_hash_sha1.o(.text) refers to stm32f4xx_hash.o(.text) for HASH_DeInit
    stm32f4xx_i2c.o(.text) refers to startup.o(.text) for assert_failed
    stm32f4xx_i2c.o(.text) refers to stm32f4xx_rcc.o(.text) for RCC_APB1PeriphResetCmd
    stm32f4xx_i2c.o(.text) refers to stm32f4xx_i2c.o(.conststring) for .conststring
    stm32f4xx_iwdg.o(.text) refers to startup.o(.text) for assert_failed
    stm32f4xx_iwdg.o(.text) refers to stm32f4xx_iwdg.o(.conststring) for .conststring
    stm32f4xx_pwr.o(.text) refers to stm32f4xx_rcc.o(.text) for RCC_APB1PeriphResetCmd
    stm32f4xx_pwr.o(.text) refers to startup.o(.text) for assert_failed
    stm32f4xx_pwr.o(.text) refers to stm32f4xx_pwr.o(.conststring) for .conststring
    stm32f4xx_rcc.o(.text) refers to startup.o(.text) for assert_failed
    stm32f4xx_rcc.o(.text) refers to stm32f4xx_rcc.o(.conststring) for .conststring
    stm32f4xx_rcc.o(.text) refers to stm32f4xx_rcc.o(.data) for APBAHBPrescTable
    stm32f4xx_rng.o(.text) refers to stm32f4xx_rcc.o(.text) for RCC_AHB2PeriphResetCmd
    stm32f4xx_rng.o(.text) refers to startup.o(.text) for assert_failed
    stm32f4xx_rng.o(.text) refers to stm32f4xx_rng.o(.conststring) for .conststring
    stm32f4xx_rtc.o(.text) refers to startup.o(.text) for assert_failed
    stm32f4xx_rtc.o(.text) refers to stm32f4xx_rtc.o(.conststring) for .conststring
    stm32f4xx_sdio.o(.text) refers to stm32f4xx_rcc.o(.text) for RCC_APB2PeriphResetCmd
    stm32f4xx_sdio.o(.text) refers to startup.o(.text) for assert_failed
    stm32f4xx_sdio.o(.text) refers to stm32f4xx_sdio.o(.conststring) for .conststring
    stm32f4xx_spi.o(.text) refers to startup.o(.text) for assert_failed
    stm32f4xx_spi.o(.text) refers to stm32f4xx_rcc.o(.text) for RCC_APB2PeriphResetCmd
    stm32f4xx_spi.o(.text) refers to stm32f4xx_spi.o(.conststring) for .conststring
    stm32f4xx_syscfg.o(.text) refers to stm32f4xx_rcc.o(.text) for RCC_APB2PeriphResetCmd
    stm32f4xx_syscfg.o(.text) refers to startup.o(.text) for assert_failed
    stm32f4xx_syscfg.o(.text) refers to stm32f4xx_syscfg.o(.conststring) for .conststring
    stm32f4xx_tim.o(.text) refers to startup.o(.text) for assert_failed
    stm32f4xx_tim.o(.text) refers to stm32f4xx_rcc.o(.text) for RCC_APB2PeriphResetCmd
    stm32f4xx_tim.o(.text) refers to stm32f4xx_tim.o(.conststring) for .conststring
    stm32f4xx_usart.o(.text) refers to startup.o(.text) for assert_failed
    stm32f4xx_usart.o(.text) refers to stm32f4xx_rcc.o(.text) for RCC_APB2PeriphResetCmd
    stm32f4xx_usart.o(.text) refers to stm32f4xx_usart.o(.conststring) for .conststring
    stm32f4xx_wwdg.o(.text) refers to stm32f4xx_rcc.o(.text) for RCC_APB1PeriphResetCmd
    stm32f4xx_wwdg.o(.text) refers to startup.o(.text) for assert_failed
    stm32f4xx_wwdg.o(.text) refers to stm32f4xx_wwdg.o(.conststring) for .conststring
    startup_stm32f4xx.o(STACK) refers (Special) to heapauxi.o(.text) for __use_two_region_memory
    startup_stm32f4xx.o(HEAP) refers (Special) to heapauxi.o(.text) for __use_two_region_memory
    startup_stm32f4xx.o(RESET) refers (Special) to heapauxi.o(.text) for __use_two_region_memory
    startup_stm32f4xx.o(RESET) refers to startup_stm32f4xx.o(STACK) for __initial_sp
    startup_stm32f4xx.o(RESET) refers to startup_stm32f4xx.o(.text) for Reset_Handler
    startup_stm32f4xx.o(RESET) refers to stm32f4xx_it.o(.text) for NMI_Handler
    startup_stm32f4xx.o(RESET) refers to context_rvds.o(.text) for HardFault_Handler
    startup_stm32f4xx.o(RESET) refers to board.o(.text) for SysTick_Handler
    startup_stm32f4xx.o(RESET) refers to usart.o(.text) for USART3_IRQHandler
    startup_stm32f4xx.o(RESET) refers to sdio_sd.o(.text) for SDIO_IRQHandler
    startup_stm32f4xx.o(.text) refers (Special) to heapauxi.o(.text) for __use_two_region_memory
    startup_stm32f4xx.o(.text) refers to system_stm32f4xx.o(.text) for SystemInit
    startup_stm32f4xx.o(.text) refers to __main.o(!!!main) for __main
    startup_stm32f4xx.o(.text) refers to startup_stm32f4xx.o(HEAP) for Heap_Mem
    startup_stm32f4xx.o(.text) refers to startup_stm32f4xx.o(STACK) for Stack_Mem
    clock.o(.text) refers to context_rvds.o(.text) for rt_hw_interrupt_disable
    clock.o(.text) refers to thread.o(.text) for rt_thread_self
    clock.o(.text) refers to timer.o(.text) for rt_timer_check
    clock.o(.text) refers to clock.o(.data) for rt_tick
    clock.o(RTMSymTab) refers to clock.o(.text) for rt_tick_get
    clock.o(RTMSymTab) refers to clock.o(.constdata) for __rtmsym_rt_tick_get_name
    device.o(.text) refers to thread.o(.text) for rt_thread_self
    device.o(.text) refers to scheduler.o(.text) for rt_enter_critical
    device.o(.text) refers to kservice.o(.text) for rt_strncmp
    device.o(.text) refers to object.o(.text) for rt_object_init
    device.o(.text) refers to object.o(.data) for rt_object_container
    device.o(.text) refers to device.o(.constdata) for __FUNCTION__
    device.o(RTMSymTab) refers to device.o(.text) for rt_device_register
    device.o(RTMSymTab) refers to device.o(.constdata) for __rtmsym_rt_device_register_name
    idle.o(.text) refers to context_rvds.o(.text) for rt_hw_interrupt_disable
    idle.o(.text) refers to irq.o(.text) for rt_interrupt_get_nest
    idle.o(.text) refers to kservice.o(.text) for rt_kprintf
    idle.o(.text) refers to object.o(.text) for rt_object_is_systemobject
    idle.o(.text) refers to mem.o(.text) for rt_free
    idle.o(.text) refers to module.o(.text) for rt_module_destroy
    idle.o(.text) refers to thread.o(.text) for rt_thread_init
    idle.o(.text) refers to idle.o(.data) for rt_thread_idle_hook
    idle.o(.text) refers to scheduler.o(.data) for rt_thread_defunct
    idle.o(.text) refers to idle.o(.constdata) for __FUNCTION__
    idle.o(.text) refers to idle.o(.bss) for rt_thread_stack
    ipc.o(.text) refers to thread.o(.text) for rt_thread_suspend
    ipc.o(.text) refers to context_rvds.o(.text) for rt_hw_interrupt_disable
    ipc.o(.text) refers to kservice.o(.text) for rt_kprintf
    ipc.o(.text) refers to object.o(.text) for rt_object_init
    ipc.o(.text) refers to irq.o(.text) for rt_interrupt_get_nest
    ipc.o(.text) refers to timer.o(.text) for rt_timer_control
    ipc.o(.text) refers to scheduler.o(.text) for rt_schedule
    ipc.o(.text) refers to ipc.o(.constdata) for __FUNCTION__
    ipc.o(.text) refers to object.o(.data) for rt_object_trytake_hook
    ipc.o(.text) refers to mem.o(.text) for rt_malloc
    ipc.o(.text) refers to clock.o(.text) for rt_tick_get
    ipc.o(RTMSymTab) refers to ipc.o(.text) for rt_sem_init
    ipc.o(RTMSymTab) refers to ipc.o(.constdata) for __rtmsym_rt_sem_init_name
    irq.o(.text) refers to context_rvds.o(.text) for rt_hw_interrupt_disable
    irq.o(.text) refers to irq.o(.data) for rt_interrupt_nest
    irq.o(RTMSymTab) refers to irq.o(.text) for rt_interrupt_enter
    irq.o(RTMSymTab) refers to irq.o(.constdata) for __rtmsym_rt_interrupt_enter_name
    irq.o(RTMSymTab) refers to context_rvds.o(.text) for rt_hw_interrupt_disable
    kservice.o(.text) refers to irq.o(.text) for rt_interrupt_get_nest
    kservice.o(.text) refers to thread.o(.text) for rt_thread_self
    kservice.o(.text) refers to mem.o(.text) for rt_malloc
    kservice.o(.text) refers to kservice.o(.data) for _errno
    kservice.o(.text) refers to kservice.o(.constdata) for large_digits
    kservice.o(.text) refers to usart.o(.text) for rt_hw_console_output
    kservice.o(.text) refers to device.o(.text) for rt_device_write
    kservice.o(.text) refers to kservice.o(.bss) for rt_log_buf
    kservice.o(RTMSymTab) refers to kservice.o(.text) for rt_get_errno
    kservice.o(RTMSymTab) refers to kservice.o(.constdata) for __rtmsym_rt_get_errno_name
    kservice.o(RTMSymTab) refers to usart.o(.text) for rt_hw_console_output
    mem.o(.text) refers to kservice.o(.text) for rt_kprintf
    mem.o(.text) refers to context_rvds.o(.text) for rt_hw_interrupt_disable
    mem.o(.text) refers to irq.o(.text) for rt_interrupt_get_nest
    mem.o(.text) refers to ipc.o(.text) for rt_sem_init
    mem.o(.text) refers to mem.o(.data) for rt_malloc_hook
    mem.o(.text) refers to mem.o(.constdata) for __FUNCTION__
    mem.o(.text) refers to mem.o(.bss) for heap_sem
    mem.o(.text) refers to mem.o(.conststring) for .conststring
    mem.o(FSymTab) refers to mem.o(.constdata) for __fsym_list_mem_name
    mem.o(FSymTab) refers to mem.o(.text) for list_mem
    mem.o(RTMSymTab) refers to mem.o(.text) for rt_malloc
    mem.o(RTMSymTab) refers to mem.o(.constdata) for __rtmsym_rt_malloc_name
    memheap.o(.text) refers to kservice.o(.text) for rt_kprintf
    memheap.o(.text) refers to object.o(.text) for rt_object_init
    memheap.o(.text) refers to ipc.o(.text) for rt_sem_init
    memheap.o(.text) refers to memheap.o(.constdata) for __FUNCTION__
    memheap.o(RTMSymTab) refers to memheap.o(.text) for rt_memheap_init
    memheap.o(RTMSymTab) refers to memheap.o(.constdata) for __rtmsym_rt_memheap_init_name
    mempool.o(.text) refers to kservice.o(.text) for rt_kprintf
    mempool.o(.text) refers to object.o(.text) for rt_object_init
    mempool.o(.text) refers to context_rvds.o(.text) for rt_hw_interrupt_disable
    mempool.o(.text) refers to thread.o(.text) for rt_thread_resume
    mempool.o(.text) refers to irq.o(.text) for rt_interrupt_get_nest
    mempool.o(.text) refers to mem.o(.text) for rt_malloc
    mempool.o(.text) refers to timer.o(.text) for rt_timer_control
    mempool.o(.text) refers to scheduler.o(.text) for rt_schedule
    mempool.o(.text) refers to mempool.o(.data) for rt_mp_alloc_hook
    mempool.o(.text) refers to mempool.o(.constdata) for __FUNCTION__
    mempool.o(RTMSymTab) refers to mempool.o(.text) for rt_mp_init
    mempool.o(RTMSymTab) refers to mempool.o(.constdata) for __rtmsym_rt_mp_init_name
    module.o(.text) refers to kservice.o(.text) for rt_strcmp
    module.o(.text) refers to thread.o(.text) for rt_thread_self
    module.o(.text) refers to object.o(.text) for rt_object_allocate
    module.o(.text) refers to mem.o(.text) for rt_malloc
    module.o(.text) refers to module.o(.data) for _rt_module_symtab_begin
    module.o(.text) refers to module.o(.constdata) for __FUNCTION__
    module.o(.text) refers to context_rvds.o(.text) for rt_hw_interrupt_disable
    module.o(.text) refers to irq.o(.text) for rt_interrupt_get_nest
    module.o(.text) refers to dfs_posix.o(.text) for stat
    module.o(.text) refers to ipc.o(.text) for rt_sem_detach
    module.o(.text) refers to mempool.o(.text) for rt_mp_detach
    module.o(.text) refers to device.o(.text) for rt_device_unregister
    module.o(.text) refers to timer.o(.text) for rt_timer_detach
    module.o(.text) refers to scheduler.o(.text) for rt_enter_critical
    module.o(.text) refers to object.o(.data) for rt_object_container
    module.o(.rti_fn.3) refers to module.o(.text) for rt_system_module_init
    module.o(FSymTab) refers to module.o(.constdata) for __fsym_exec_name
    module.o(FSymTab) refers to module.o(.text) for rt_module_open
    object.o(.text) refers to module.o(.text) for rt_module_self
    object.o(.text) refers to kservice.o(.text) for rt_strncpy
    object.o(.text) refers to context_rvds.o(.text) for rt_hw_interrupt_disable
    object.o(.text) refers to irq.o(.text) for rt_interrupt_get_nest
    object.o(.text) refers to mem.o(.text) for rt_malloc
    object.o(.text) refers to scheduler.o(.text) for rt_enter_critical
    object.o(.text) refers to object.o(.data) for rt_object_attach_hook
    object.o(.text) refers to object.o(.constdata) for __FUNCTION__
    object.o(.text) refers to irq.o(.data) for rt_interrupt_nest
    object.o(RTMSymTab) refers to object.o(.text) for rt_object_get_information
    object.o(RTMSymTab) refers to object.o(.constdata) for __rtmsym_rt_object_get_information_name
    scheduler.o(.text) refers to kservice.o(.text) for rt_kprintf
    scheduler.o(.text) refers to cmd.o(.text) for list_thread
    scheduler.o(.text) refers to context_rvds.o(.text) for rt_hw_interrupt_disable
    scheduler.o(.text) refers to scheduler.o(.data) for rt_scheduler_hook
    scheduler.o(.text) refers to scheduler.o(.constdata) for __FUNCTION__
    scheduler.o(.text) refers to scheduler.o(.bss) for rt_thread_priority_table
    scheduler.o(.text) refers to irq.o(.data) for rt_interrupt_nest
    thread.o(.text) refers to context_rvds.o(.text) for rt_hw_interrupt_disable
    thread.o(.text) refers to scheduler.o(.text) for rt_schedule_remove_thread
    thread.o(.text) refers to object.o(.text) for rt_object_detach
    thread.o(.text) refers to kservice.o(.text) for rt_kprintf
    thread.o(.text) refers to cpuport.o(.text) for rt_hw_stack_init
    thread.o(.text) refers to timer.o(.text) for rt_timer_init
    thread.o(.text) refers to mem.o(.text) for rt_malloc
    thread.o(.text) refers to scheduler.o(.data) for rt_current_thread
    thread.o(.text) refers to thread.o(.constdata) for __FUNCTION__
    thread.o(.text) refers to scheduler.o(.bss) for rt_thread_priority_table
    thread.o(.text) refers to object.o(.data) for rt_object_container
    thread.o(RTMSymTab) refers to thread.o(.text) for rt_thread_init
    thread.o(RTMSymTab) refers to thread.o(.constdata) for __rtmsym_rt_thread_init_name
    timer.o(.text) refers to kservice.o(.text) for rt_kprintf
    timer.o(.text) refers to object.o(.text) for rt_object_init
    timer.o(.text) refers to context_rvds.o(.text) for rt_hw_interrupt_disable
    timer.o(.text) refers to clock.o(.text) for rt_tick_get
    timer.o(.text) refers to timer.o(.data) for rt_timer_timeout_hook
    timer.o(.text) refers to timer.o(.constdata) for __FUNCTION__
    timer.o(.text) refers to object.o(.data) for rt_object_take_hook
    timer.o(RTMSymTab) refers to timer.o(.text) for rt_timer_init
    timer.o(RTMSymTab) refers to timer.o(.constdata) for __rtmsym_rt_timer_init_name
    cpuport.o(.text) refers to kservice.o(.text) for rt_kprintf
    cpuport.o(.text) refers to thread.o(.text) for rt_thread_self
    cpuport.o(.text) refers to cmd.o(.text) for list_thread
    cpuport.o(.text) refers to cpuport.o(.data) for rt_exception_hook
    cpuport.o(.text) refers to cpuport.o(.constdata) for __FUNCTION__
    context_rvds.o(.text) refers to cpuport.o(.text) for rt_hw_hard_fault_exception
    context_rvds.o(.text) refers to cpuport.o(.data) for rt_thread_switch_interrupt_flag
    showmem.o(.text) refers to kservice.o(.text) for rt_kprintf
    showmem.o(.text) refers to showmem.o(.constdata) for __FUNCTION__
    dfs.o(.text) refers to kservice.o(.text) for rt_memset
    dfs.o(.text) refers to ipc.o(.text) for rt_mutex_init
    dfs.o(.text) refers to strlen.o(.text) for strlen
    dfs.o(.text) refers to mem.o(.text) for rt_malloc
    dfs.o(.text) refers to dfs_fs.o(.text) for dfs_filesystem_lookup
    dfs.o(.text) refers to shell.o(.text) for strcmp
    dfs.o(.text) refers to dfs.o(.bss) for filesystem_operation_table
    dfs.o(.text) refers to dfs.o(.data) for working_directory
    dfs.o(.text) refers to dfs.o(.constdata) for __FUNCTION__
    dfs.o(.rti_fn.3) refers to dfs.o(.text) for dfs_init
    dfs_fs.o(.text) refers to dfs.o(.text) for dfs_lock
    dfs_fs.o(.text) refers to shell.o(.text) for strcmp
    dfs_fs.o(.text) refers to strlen.o(.text) for strlen
    dfs_fs.o(.text) refers to strncmp.o(.text) for strncmp
    dfs_fs.o(.text) refers to kservice.o(.text) for rt_kprintf
    dfs_fs.o(.text) refers to device.o(.text) for rt_device_find
    dfs_fs.o(.text) refers to dfs_file.o(.text) for dfs_file_open
    dfs_fs.o(.text) refers to mem.o(.text) for rt_free
    dfs_fs.o(.text) refers to dfs.o(.bss) for filesystem_operation_table
    dfs_fs.o(.text) refers to dfs_fs.o(.constdata) for __FUNCTION__
    dfs_fs.o(.text) refers to mnttable.o(.constdata) for mount_table
    dfs_fs.o(.rti_fn.5) refers to dfs_fs.o(.text) for dfs_mount_table
    dfs_fs.o(FSymTab) refers to dfs_fs.o(.constdata) for __fsym_mkfs_name
    dfs_fs.o(FSymTab) refers to dfs_fs.o(.text) for mkfs
    dfs_file.o(.text) refers to dfs.o(.text) for dfs_normalize_path
    dfs_file.o(.text) refers to dfs_fs.o(.text) for dfs_filesystem_lookup
    dfs_file.o(.text) refers to mem.o(.text) for rt_free
    dfs_file.o(.text) refers to kservice.o(.text) for rt_strdup
    dfs_file.o(.text) refers to dfs.o(.data) for working_directory
    dfs_file.o(.text) refers to dfs_file.o(.bss) for fd
    dfs_file.o(FSymTab) refers to dfs_file.o(.constdata) for __fsym_ls_name
    dfs_file.o(FSymTab) refers to dfs_file.o(.text) for ls
    dfs_posix.o(.text) refers to dfs.o(.text) for fd_new
    dfs_posix.o(.text) refers to kservice.o(.text) for rt_set_errno
    dfs_posix.o(.text) refers to dfs_file.o(.text) for dfs_file_open
    dfs_posix.o(.text) refers to dfs_fs.o(.text) for dfs_statfs
    dfs_posix.o(.text) refers to mem.o(.text) for rt_malloc
    dfs_posix.o(.text) refers to strncpy.o(.text) for strncpy
    dfs_posix.o(.text) refers to scheduler.o(.text) for rt_enter_critical
    dfs_posix.o(.text) refers to dfs.o(.data) for working_directory
    dfs_posix.o(FSymTab) refers to dfs_posix.o(.constdata) for __fsym_mkdir_name
    dfs_posix.o(FSymTab) refers to dfs_posix.o(.text) for mkdir
    dfs_posix.o(RTMSymTab) refers to dfs_posix.o(.text) for open
    dfs_posix.o(RTMSymTab) refers to dfs_posix.o(.constdata) for __rtmsym_open_name
    dfs_elm.o(.text) refers to mem.o(.text) for rt_malloc
    dfs_elm.o(.text) refers to ff.o(.text) for f_mount
    dfs_elm.o(.text) refers to kservice.o(.text) for rt_snprintf
    dfs_elm.o(.text) refers to device.o(.text) for rt_device_open
    dfs_elm.o(.text) refers to dfs_elm.o(.data) for disk
    dfs_elm.o(.text) refers to dfs_elm.o(.constdata) for __FUNCTION__
    dfs_elm.o(.text) refers to rt_memclr_w.o(.text) for __aeabi_memclr4
    dfs_elm.o(.text) refers to mktime.o(.text) for mktime
    dfs_elm.o(.text) refers to dfs_fs.o(.text) for dfs_register
    dfs_elm.o(.text) refers to ipc.o(.text) for rt_mutex_create
    dfs_elm.o(.constdata) refers to dfs_elm.o(.conststring) for .conststring
    dfs_elm.o(.constdata) refers to dfs_elm.o(.text) for dfs_elm_mount
    dfs_elm.o(.rti_fn.4) refers to dfs_elm.o(.text) for elm_init
    ff.o(.text) refers to dfs_elm.o(.text) for ff_req_grant
    ff.o(.text) refers to ccfile.o(.text) for ff_wtoupper
    ff.o(.text) refers to ff.o(.constdata) for LfnOfs
    ff.o(.text) refers to ff.o(.data) for FatFs
    ccfile.o(.text) refers to dfs_posix.o(.text) for open
    ccfile.o(.text) refers to kservice.o(.text) for rt_kprintf
    ccfile.o(.text) refers to ccfile.o(.data) for gbk2uni_fd
    ccfile.o(.text) refers to ccfile.o(.constdata) for tbl_lower
    ccfile.o(.rti_fn.6) refers to ccfile.o(.text) for ff_convert_init
    devfs.o(.text) refers to kservice.o(.text) for rt_kprintf
    devfs.o(.text) refers to device.o(.text) for rt_device_control
    devfs.o(.text) refers to mem.o(.text) for rt_free
    devfs.o(.text) refers to scheduler.o(.text) for rt_enter_critical
    devfs.o(.text) refers to dfs_fs.o(.text) for dfs_register
    devfs.o(.text) refers to devfs.o(.constdata) for __FUNCTION__
    devfs.o(.text) refers to object.o(.data) for rt_object_container
    devfs.o(.constdata) refers to devfs.o(.conststring) for .conststring
    devfs.o(.constdata) refers to devfs.o(.text) for dfs_device_fs_mount
    devfs.o(.rti_fn.4) refers to devfs.o(.text) for devfs_init
    console.o(.text) refers to kservice.o(.text) for rt_kprintf
    console.o(.text) refers to device.o(.text) for rt_device_read
    console.o(.text) refers to console.o(.constdata) for __FUNCTION__
    console.o(.text) refers to console.o(.bss) for _console
    rtc.o(.text) refers to device.o(.text) for rt_device_find
    rtc.o(.text) refers to scheduler.o(.text) for rt_enter_critical
    rtc.o(.text) refers to localtime.o(.text) for localtime
    rtc.o(.text) refers to rt_memcpy_w.o(.text) for __aeabi_memcpy4
    rtc.o(.text) refers to mktime.o(.text) for mktime
    rtc.o(.text) refers to ctime.o(.text) for ctime
    rtc.o(.text) refers to kservice.o(.text) for rt_kprintf
    rtc.o(.text) refers to rtc.o(.data) for device
    rtc.o(FSymTab) refers to rtc.o(.constdata) for __fsym_list_date_name
    rtc.o(FSymTab) refers to rtc.o(.text) for list_date
    serial.o(.text) refers to kservice.o(.text) for rt_kprintf
    serial.o(.text) refers to dataqueue.o(.text) for rt_data_queue_init
    serial.o(.text) refers to context_rvds.o(.text) for rt_hw_interrupt_disable
    serial.o(.text) refers to serial.o(.constdata) for __FUNCTION__
    serial.o(.text) refers to device.o(.text) for rt_device_register
    spi_core.o(.text) refers to spi_dev.o(.text) for rt_spi_bus_device_init
    spi_core.o(.text) refers to ipc.o(.text) for rt_mutex_init
    spi_core.o(.text) refers to device.o(.text) for rt_device_find
    spi_core.o(.text) refers to kservice.o(.text) for rt_memset
    spi_core.o(.text) refers to spi_core.o(.constdata) for __FUNCTION__
    spi_dev.o(.text) refers to kservice.o(.text) for rt_kprintf
    spi_dev.o(.text) refers to spi_core.o(.text) for rt_spi_transfer
    spi_dev.o(.text) refers to device.o(.text) for rt_device_register
    spi_dev.o(.text) refers to spi_dev.o(.constdata) for __FUNCTION__
    completion.o(.text) refers to kservice.o(.text) for rt_kprintf
    completion.o(.text) refers to context_rvds.o(.text) for rt_hw_interrupt_disable
    completion.o(.text) refers to thread.o(.text) for rt_thread_self
    completion.o(.text) refers to irq.o(.text) for rt_interrupt_get_nest
    completion.o(.text) refers to timer.o(.text) for rt_timer_control
    completion.o(.text) refers to scheduler.o(.text) for rt_schedule
    completion.o(.text) refers to completion.o(.constdata) for __FUNCTION__
    dataqueue.o(.text) refers to kservice.o(.text) for rt_kprintf
    dataqueue.o(.text) refers to mem.o(.text) for rt_malloc
    dataqueue.o(.text) refers to thread.o(.text) for rt_thread_self
    dataqueue.o(.text) refers to context_rvds.o(.text) for rt_hw_interrupt_disable
    dataqueue.o(.text) refers to irq.o(.text) for rt_interrupt_get_nest
    dataqueue.o(.text) refers to timer.o(.text) for rt_timer_control
    dataqueue.o(.text) refers to scheduler.o(.text) for rt_schedule
    dataqueue.o(.text) refers to dataqueue.o(.constdata) for __FUNCTION__
    dataqueue.o(RTMSymTab) refers to dataqueue.o(.text) for rt_data_queue_init
    dataqueue.o(RTMSymTab) refers to dataqueue.o(.constdata) for __rtmsym_rt_data_queue_init_name
    pipe.o(.text) refers to kservice.o(.text) for rt_kprintf
    pipe.o(.text) refers to thread.o(.text) for rt_thread_resume
    pipe.o(.text) refers to scheduler.o(.text) for rt_schedule
    pipe.o(.text) refers to context_rvds.o(.text) for rt_hw_interrupt_disable
    pipe.o(.text) refers to ringbuffer.o(.text) for rt_ringbuffer_get
    pipe.o(.text) refers to irq.o(.text) for rt_interrupt_get_nest
    pipe.o(.text) refers to device.o(.text) for rt_device_register
    pipe.o(.text) refers to mem.o(.text) for rt_calloc
    pipe.o(.text) refers to pipe.o(.constdata) for __FUNCTION__
    pipe.o(RTMSymTab) refers to pipe.o(.text) for rt_pipe_init
    pipe.o(RTMSymTab) refers to pipe.o(.constdata) for __rtmsym_rt_pipe_init_name
    portal.o(.text) refers to kservice.o(.text) for rt_kprintf
    portal.o(.text) refers to device.o(.text) for rt_device_init
    portal.o(.text) refers to mem.o(.text) for rt_calloc
    portal.o(.text) refers to portal.o(.constdata) for __FUNCTION__
    portal.o(RTMSymTab) refers to portal.o(.text) for rt_portal_init
    portal.o(RTMSymTab) refers to portal.o(.constdata) for __rtmsym_rt_portal_init_name
    ringbuffer.o(.text) refers to kservice.o(.text) for rt_kprintf
    ringbuffer.o(.text) refers to rt_memcpy_v6.o(.text) for __aeabi_memcpy
    ringbuffer.o(.text) refers to ringbuffer.o(.constdata) for __FUNCTION__
    ringbuffer.o(RTMSymTab) refers to ringbuffer.o(.text) for rt_ringbuffer_init
    ringbuffer.o(RTMSymTab) refers to ringbuffer.o(.constdata) for __rtmsym_rt_ringbuffer_init_name
    cmd.o(.text) refers to kservice.o(.text) for rt_kprintf
    cmd.o(.text) refers to cmd.o(.conststring) for .conststring
    cmd.o(.text) refers to object.o(.data) for rt_object_container
    cmd.o(.text) refers to clock.o(.text) for rt_tick_get
    cmd.o(.text) refers to rt_memcpy_w.o(.text) for __aeabi_memcpy4
    cmd.o(.text) refers to module.o(.text) for rt_module_find
    cmd.o(.text) refers to strncmp.o(.text) for strncmp
    cmd.o(.text) refers to strlen.o(.text) for strlen
    cmd.o(.text) refers to cmd.o(.constdata) for .constdata
    cmd.o(.text) refers to symbol.o(.data) for _syscall_table_begin
    cmd.o(.text) refers to finsh_vm.o(.data) for global_syscall_list
    cmd.o(.text) refers to finsh_var.o(.data) for global_sysvar_list
    cmd.o(.constdata) refers to cmd.o(.conststring) for .conststring
    cmd.o(FSymTab) refers to cmd.o(.constdata) for __fsym_hello_name
    cmd.o(FSymTab) refers to cmd.o(.text) for hello
    cmd.o(VSymTab) refers to cmd.o(.constdata) for __vsym_dummy_name
    cmd.o(VSymTab) refers to cmd.o(.data) for dummy
    finsh_compiler.o(.text) refers to finsh_compiler.o(.data) for finsh_compile_pc
    finsh_compiler.o(.text) refers to finsh_error.o(.text) for finsh_error_set
    finsh_compiler.o(.text) refers to rt_memclr.o(.text) for __aeabi_memclr
    finsh_compiler.o(.text) refers to finsh_vm.o(.bss) for text_segment
    finsh_error.o(.text) refers to finsh_error.o(.data) for global_errno
    finsh_error.o(.data) refers to finsh_error.o(.conststring) for .conststring
    finsh_heap.o(.text) refers to rt_memclr_w.o(.text) for __aeabi_memclr4
    finsh_heap.o(.text) refers to finsh_heap.o(.bss) for finsh_heap
    finsh_heap.o(.text) refers to finsh_heap.o(.data) for free_list
    finsh_heap.o(.text) refers to finsh_var.o(.bss) for global_variable
    finsh_init.o(.text) refers to finsh_parser.o(.text) for finsh_parser_init
    finsh_init.o(.text) refers to finsh_node.o(.text) for finsh_node_init
    finsh_init.o(.text) refers to finsh_var.o(.text) for finsh_var_init
    finsh_init.o(.text) refers to finsh_error.o(.text) for finsh_error_init
    finsh_init.o(.text) refers to finsh_heap.o(.text) for finsh_heap_init
    finsh_init.o(.text) refers to finsh_vm.o(.bss) for finsh_vm_stack
    finsh_node.o(.text) refers to rt_memclr_w.o(.text) for __aeabi_memclr4
    finsh_node.o(.text) refers to finsh_var.o(.text) for finsh_var_lookup
    finsh_node.o(.text) refers to finsh_vm.o(.text) for finsh_syscall_lookup
    finsh_node.o(.text) refers to finsh_error.o(.text) for finsh_error_set
    finsh_node.o(.text) refers to strlen.o(.text) for strlen
    finsh_node.o(.text) refers to finsh_heap.o(.text) for finsh_heap_allocate
    finsh_node.o(.text) refers to strncpy.o(.text) for strncpy
    finsh_node.o(.text) refers to finsh_node.o(.bss) for global_node_table
    finsh_ops.o(.text) refers to finsh_vm.o(.data) for finsh_sp
    finsh_ops.o(.constdata) refers to finsh_ops.o(.text) for OP_no_op
    finsh_parser.o(.text) refers to finsh_node.o(.text) for finsh_node_allocate
    finsh_parser.o(.text) refers to finsh_error.o(.text) for finsh_error_set
    finsh_parser.o(.text) refers to finsh_token.o(.text) for finsh_token_token
    finsh_parser.o(.text) refers to strncpy.o(.text) for strncpy
    finsh_parser.o(.text) refers to finsh_var.o(.text) for finsh_var_insert
    finsh_parser.o(.text) refers to rt_memclr_w.o(.text) for __aeabi_memclr4
    finsh_token.o(.text) refers to rt_memclr_w.o(.text) for __aeabi_memclr4
    finsh_token.o(.text) refers to strlen.o(.text) for strlen
    finsh_token.o(.text) refers to finsh_error.o(.text) for finsh_error_set
    finsh_token.o(.text) refers to atoi.o(.text) for atoi
    finsh_token.o(.text) refers to shell.o(.text) for strcmp
    finsh_token.o(.text) refers to strncpy.o(.text) for strncpy
    finsh_token.o(.text) refers to finsh_token.o(.constdata) for finsh_name_table
    finsh_token.o(.constdata) refers to finsh_token.o(.conststring) for .conststring
    finsh_var.o(.text) refers to rt_memclr_w.o(.text) for __aeabi_memclr4
    finsh_var.o(.text) refers to strncmp.o(.text) for strncmp
    finsh_var.o(.text) refers to strncpy.o(.text) for strncpy
    finsh_var.o(.text) refers to mem.o(.text) for rt_malloc
    finsh_var.o(.text) refers to shell.o(.text) for strdup
    finsh_var.o(.text) refers to strlen.o(.text) for strlen
    finsh_var.o(.text) refers to finsh_var.o(.bss) for global_variable
    finsh_var.o(.text) refers to finsh_var.o(.data) for global_sysvar_list
    finsh_var.o(.text) refers to symbol.o(.data) for _sysvar_table_begin
    finsh_vm.o(.text) refers to mem.o(.text) for rt_malloc
    finsh_vm.o(.text) refers to shell.o(.text) for strdup
    finsh_vm.o(.text) refers to strlen.o(.text) for strlen
    finsh_vm.o(.text) refers to strncmp.o(.text) for strncmp
    finsh_vm.o(.text) refers to finsh_vm.o(.bss) for finsh_vm_stack
    finsh_vm.o(.text) refers to finsh_vm.o(.data) for finsh_sp
    finsh_vm.o(.text) refers to finsh_ops.o(.constdata) for op_table
    finsh_vm.o(.text) refers to symbol.o(.data) for _syscall_table_begin
    shell.o(.text) refers to strlen.o(.text) for strlen
    shell.o(.text) refers to mem.o(.text) for rt_malloc
    shell.o(.text) refers to kservice.o(.text) for rt_memcpy
    shell.o(.text) refers to dfs_posix.o(.text) for getcwd
    shell.o(.text) refers to strcat.o(.text) for strcat
    shell.o(.text) refers to ipc.o(.text) for rt_sem_release
    shell.o(.text) refers to device.o(.text) for rt_device_find
    shell.o(.text) refers to cmd.o(.text) for list_prefix
    shell.o(.text) refers to finsh_parser.o(.text) for finsh_parser_run
    shell.o(.text) refers to finsh_error.o(.text) for finsh_errno
    shell.o(.text) refers to finsh_compiler.o(.text) for finsh_compiler_run
    shell.o(.text) refers to finsh_vm.o(.text) for finsh_vm_run
    shell.o(.text) refers to finsh_init.o(.text) for finsh_stack_bottom
    shell.o(.text) refers to rt_memcpy_v6.o(.text) for __aeabi_memcpy
    shell.o(.text) refers to rt_memclr.o(.text) for __aeabi_memclr
    shell.o(.text) refers to shell.o(.data) for finsh_prompt
    shell.o(.text) refers to shell.o(.constdata) for __FUNCTION__
    shell.o(.text) refers to rt_memclr_w.o(.text) for __aeabi_memclr4
    shell.o(.text) refers to thread.o(.text) for rt_thread_init
    shell.o(.text) refers to symbol.o(.data) for _syscall_table_begin
    shell.o(.text) refers to shell.o(.bss) for finsh_thread_stack
    shell.o(.rti_fn.3) refers to shell.o(.text) for finsh_system_init
    components.o(.text) refers to components.o(.rti_fn.0) for __rt_init_rti_start
    components.o(.text) refers to components.o(.rti_fn.1.post) for __rt_init_rti_board_end
    components.o(.text) refers to components.o(.rti_fn.7) for __rt_init_rti_end
    components.o(.rti_fn.0) refers to components.o(.text) for rti_start
    components.o(.rti_fn.1.post) refers to components.o(.text) for rti_board_end
    components.o(.rti_fn.7) refers to components.o(.text) for rti_end
    atoi.o(.text) refers to rt_errno_addr_intlibspace.o(.text) for __aeabi_errno_addr
    atoi.o(.text) refers to strtol.o(.text) for strtol
    rt_memcpy_v6.o(.text) refers to rt_memcpy_w.o(.text) for __aeabi_memcpy4
    rt_memclr.o(.text) refers to rt_memclr_w.o(.text) for _memset_w
    strncpy.o(.text) refers to rt_memclr.o(.text) for __aeabi_memclr
    ctime.o(.text) refers to localtime.o(.text) for localtime
    ctime.o(.text) refers to asctime.o(.text) for asctime
    localtime.o(.text) refers to localtime_internal.o(.text) for _localtime_r
    localtime.o(.text) refers to localtime.o(.bss) for .bss
    mktime.o(.text) refers to _monlen.o(.constdata) for _monlen
    __main.o(!!!main) refers to __rtentry.o(.ARM.Collect$$rtentry$$00000000) for __rt_entry
    __rtentry.o(.ARM.Collect$$rtentry$$00000000) refers (Special) to __rtentry2.o(.ARM.Collect$$rtentry$$0000000A) for __rt_entry_li
    __rtentry.o(.ARM.Collect$$rtentry$$00000000) refers (Special) to __rtentry2.o(.ARM.Collect$$rtentry$$0000000D) for __rt_entry_main
    __rtentry.o(.ARM.Collect$$rtentry$$00000000) refers (Special) to __rtentry2.o(.ARM.Collect$$rtentry$$0000000C) for __rt_entry_postli_1
    __rtentry.o(.ARM.Collect$$rtentry$$00000000) refers (Special) to __rtentry2.o(.ARM.Collect$$rtentry$$00000009) for __rt_entry_postsh_1
    __rtentry.o(.ARM.Collect$$rtentry$$00000000) refers (Special) to __rtentry2.o(.ARM.Collect$$rtentry$$00000002) for __rt_entry_presh_1
    __rtentry.o(.ARM.Collect$$rtentry$$00000000) refers (Special) to __rtentry4.o(.ARM.Collect$$rtentry$$00000004) for __rt_entry_sh
    rt_errno_addr.o(.text) refers to rt_errno_addr.o(.bss) for __aeabi_errno_addr_data
    rt_errno_addr_intlibspace.o(.text) refers to libspace.o(.bss) for __libspace_start
    strtol.o(.text) refers to rt_ctype_table.o(.text) for __rt_ctype_table
    strtol.o(.text) refers to _strtoul.o(.text) for _strtoul
    strtol.o(.text) refers to rt_errno_addr_intlibspace.o(.text) for __aeabi_errno_addr
    asctime.o(.text) refers to asctime_internal.o(.text) for _asctime_r
    asctime.o(.text) refers to asctime.o(.bss) for .bss
    localtime_internal.o(.text) refers to rt_memclr_w.o(.text) for __aeabi_memclr4
    localtime_internal.o(.text) refers to _monlen.o(.constdata) for _monlen
    libspace.o(.text) refers to libspace.o(.bss) for __libspace_start
    __rtentry2.o(.ARM.Collect$$rtentry$$00000008) refers to boardinit2.o(.text) for _platform_post_stackheap_init
    __rtentry2.o(.ARM.Collect$$rtentry$$0000000A) refers to libinit.o(.ARM.Collect$$libinit$$00000000) for __rt_lib_init
    __rtentry2.o(.ARM.Collect$$rtentry$$0000000B) refers to boardinit3.o(.text) for _platform_post_lib_init
    __rtentry2.o(.ARM.Collect$$rtentry$$0000000D) refers to startup.o(.text) for main
    __rtentry2.o(.ARM.Collect$$rtentry$$0000000D) refers to exit.o(.text) for exit
    __rtentry2.o(.ARM.exidx) refers to __rtentry2.o(.ARM.Collect$$rtentry$$00000001) for .ARM.Collect$$rtentry$$00000001
    __rtentry2.o(.ARM.exidx) refers to __rtentry2.o(.ARM.Collect$$rtentry$$00000008) for .ARM.Collect$$rtentry$$00000008
    __rtentry2.o(.ARM.exidx) refers to __rtentry2.o(.ARM.Collect$$rtentry$$0000000A) for .ARM.Collect$$rtentry$$0000000A
    __rtentry2.o(.ARM.exidx) refers to __rtentry2.o(.ARM.Collect$$rtentry$$0000000B) for .ARM.Collect$$rtentry$$0000000B
    __rtentry2.o(.ARM.exidx) refers to __rtentry2.o(.ARM.Collect$$rtentry$$0000000D) for .ARM.Collect$$rtentry$$0000000D
    __rtentry4.o(.ARM.Collect$$rtentry$$00000004) refers to sys_stackheap_outer.o(.text) for __user_setup_stackheap
    __rtentry4.o(.ARM.exidx) refers to __rtentry4.o(.ARM.Collect$$rtentry$$00000004) for .ARM.Collect$$rtentry$$00000004
    rt_ctype_table.o(.text) refers to rt_locale_intlibspace.o(.text) for __rt_locale
    rt_ctype_table.o(.text) refers to lc_ctype_c.o(locale$$code) for _get_lc_ctype
    _strtoul.o(.text) refers to _chval.o(.text) for _chval
    _strtoul.o(.text) refers to rt_errno_addr_intlibspace.o(.text) for __aeabi_errno_addr
    asctime_internal.o(.text) refers (Special) to lc_time_c.o(locale$$code) for _get_lc_time
    asctime_internal.o(.text) refers to rt_locale_intlibspace.o(.text) for __rt_locale
    asctime_internal.o(.text) refers to sprintf.o(.text) for sprintf
    sys_stackheap_outer.o(.text) refers to libspace.o(.text) for __user_perproc_libspace
    sys_stackheap_outer.o(.text) refers to startup_stm32f4xx.o(.text) for __user_initial_stackheap
    rt_locale.o(.text) refers to rt_locale.o(.bss) for __rt_locale_data
    rt_locale_intlibspace.o(.text) refers to libspace.o(.bss) for __libspace_start
    sprintf.o(.text) refers (Special) to _printf_a.o(.ARM.Collect$$_printf_percent$$00000006) for _printf_a
    sprintf.o(.text) refers (Special) to _printf_c.o(.ARM.Collect$$_printf_percent$$00000013) for _printf_c
    sprintf.o(.text) refers (Special) to _printf_charcount.o(.text) for _printf_charcount
    sprintf.o(.text) refers (Special) to _printf_d.o(.ARM.Collect$$_printf_percent$$00000009) for _printf_d
    sprintf.o(.text) refers (Special) to _printf_e.o(.ARM.Collect$$_printf_percent$$00000004) for _printf_e
    sprintf.o(.text) refers (Special) to _printf_f.o(.ARM.Collect$$_printf_percent$$00000003) for _printf_f
    sprintf.o(.text) refers (Special) to printf1.o(x$fpl$printf1) for _printf_fp_dec
    sprintf.o(.text) refers (Special) to printf2.o(x$fpl$printf2) for _printf_fp_hex
    sprintf.o(.text) refers (Special) to _printf_g.o(.ARM.Collect$$_printf_percent$$00000005) for _printf_g
    sprintf.o(.text) refers (Special) to _printf_i.o(.ARM.Collect$$_printf_percent$$00000008) for _printf_i
    sprintf.o(.text) refers (Special) to _printf_dec.o(.text) for _printf_int_dec
    sprintf.o(.text) refers (Special) to _printf_l.o(.ARM.Collect$$_printf_percent$$00000012) for _printf_l
    sprintf.o(.text) refers (Special) to _printf_lc.o(.ARM.Collect$$_printf_percent$$00000015) for _printf_lc
    sprintf.o(.text) refers (Special) to _printf_ll.o(.ARM.Collect$$_printf_percent$$00000007) for _printf_ll
    sprintf.o(.text) refers (Special) to _printf_lld.o(.ARM.Collect$$_printf_percent$$0000000E) for _printf_lld
    sprintf.o(.text) refers (Special) to _printf_lli.o(.ARM.Collect$$_printf_percent$$0000000D) for _printf_lli
    sprintf.o(.text) refers (Special) to _printf_llo.o(.ARM.Collect$$_printf_percent$$00000010) for _printf_llo
    sprintf.o(.text) refers (Special) to _printf_llu.o(.ARM.Collect$$_printf_percent$$0000000F) for _printf_llu
    sprintf.o(.text) refers (Special) to _printf_llx.o(.ARM.Collect$$_printf_percent$$00000011) for _printf_llx
    sprintf.o(.text) refers (Special) to _printf_longlong_dec.o(.text) for _printf_longlong_dec
    sprintf.o(.text) refers (Special) to _printf_hex_int_ll_ptr.o(.text) for _printf_longlong_hex
    sprintf.o(.text) refers (Special) to _printf_oct_int_ll.o(.text) for _printf_longlong_oct
    sprintf.o(.text) refers (Special) to _printf_ls.o(.ARM.Collect$$_printf_percent$$00000016) for _printf_ls
    sprintf.o(.text) refers (Special) to _printf_n.o(.ARM.Collect$$_printf_percent$$00000001) for _printf_n
    sprintf.o(.text) refers (Special) to _printf_o.o(.ARM.Collect$$_printf_percent$$0000000B) for _printf_o
    sprintf.o(.text) refers (Special) to _printf_p.o(.ARM.Collect$$_printf_percent$$00000002) for _printf_p
    sprintf.o(.text) refers (Special) to _printf_percent.o(.ARM.Collect$$_printf_percent$$00000000) for _printf_percent
    sprintf.o(.text) refers (Special) to _printf_pad.o(.text) for _printf_post_padding
    sprintf.o(.text) refers (Special) to _printf_s.o(.ARM.Collect$$_printf_percent$$00000014) for _printf_s
    sprintf.o(.text) refers (Special) to _printf_str.o(.text) for _printf_str
    sprintf.o(.text) refers (Special) to _printf_truncate.o(.text) for _printf_truncate_signed
    sprintf.o(.text) refers (Special) to _printf_u.o(.ARM.Collect$$_printf_percent$$0000000A) for _printf_u
    sprintf.o(.text) refers (Special) to _printf_wctomb.o(.text) for _printf_wctomb
    sprintf.o(.text) refers (Special) to _printf_x.o(.ARM.Collect$$_printf_percent$$0000000C) for _printf_x
    sprintf.o(.text) refers to _printf_char_common.o(.text) for _printf_char_common
    sprintf.o(.text) refers to _sputc.o(.text) for _sputc
    lc_ctype_c.o(locale$$data) refers (Special) to libinit2.o(.ARM.Collect$$libinit$$00000012) for __rt_lib_init_lc_ctype_2
    lc_ctype_c.o(locale$$code) refers (Special) to libinit2.o(.ARM.Collect$$libinit$$00000012) for __rt_lib_init_lc_ctype_2
    lc_ctype_c.o(locale$$code) refers to shell.o(.text) for strcmp
    lc_ctype_c.o(locale$$code) refers to lc_ctype_c.o(locale$$data) for __lcctype_c_name
    lc_time_c.o(locale$$data) refers (Special) to libinit2.o(.ARM.Collect$$libinit$$00000018) for __rt_lib_init_lc_time_2
    lc_time_c.o(locale$$code) refers (Special) to libinit2.o(.ARM.Collect$$libinit$$00000018) for __rt_lib_init_lc_time_2
    lc_time_c.o(locale$$code) refers to shell.o(.text) for strcmp
    lc_time_c.o(locale$$code) refers to lc_time_c.o(locale$$data) for __lctime_c_name
    exit.o(.text) refers to rtexit.o(.ARM.Collect$$rtexit$$00000000) for __rt_exit
    libinit.o(.ARM.Collect$$libinit$$00000000) refers (Special) to libinit2.o(.ARM.Collect$$libinit$$0000002E) for __rt_lib_init_alloca_1
    libinit.o(.ARM.Collect$$libinit$$00000000) refers (Special) to libinit2.o(.ARM.Collect$$libinit$$0000002C) for __rt_lib_init_argv_1
    libinit.o(.ARM.Collect$$libinit$$00000000) refers (Special) to libinit2.o(.ARM.Collect$$libinit$$0000001B) for __rt_lib_init_atexit_1
    libinit.o(.ARM.Collect$$libinit$$00000000) refers (Special) to libinit2.o(.ARM.Collect$$libinit$$00000021) for __rt_lib_init_clock_1
    libinit.o(.ARM.Collect$$libinit$$00000000) refers (Special) to libinit2.o(.ARM.Collect$$libinit$$00000032) for __rt_lib_init_cpp_1
    libinit.o(.ARM.Collect$$libinit$$00000000) refers (Special) to libinit2.o(.ARM.Collect$$libinit$$00000030) for __rt_lib_init_exceptions_1
    libinit.o(.ARM.Collect$$libinit$$00000000) refers (Special) to libinit2.o(.ARM.Collect$$libinit$$00000001) for __rt_lib_init_fp_1
    libinit.o(.ARM.Collect$$libinit$$00000000) refers (Special) to libinit2.o(.ARM.Collect$$libinit$$0000001F) for __rt_lib_init_fp_trap_1
    libinit.o(.ARM.Collect$$libinit$$00000000) refers (Special) to libinit2.o(.ARM.Collect$$libinit$$00000023) for __rt_lib_init_getenv_1
    libinit.o(.ARM.Collect$$libinit$$00000000) refers (Special) to libinit2.o(.ARM.Collect$$libinit$$0000000A) for __rt_lib_init_heap_1
    libinit.o(.ARM.Collect$$libinit$$00000000) refers (Special) to libinit2.o(.ARM.Collect$$libinit$$00000011) for __rt_lib_init_lc_collate_1
    libinit.o(.ARM.Collect$$libinit$$00000000) refers (Special) to libinit2.o(.ARM.Collect$$libinit$$00000013) for __rt_lib_init_lc_ctype_1
    libinit.o(.ARM.Collect$$libinit$$00000000) refers (Special) to libinit2.o(.ARM.Collect$$libinit$$00000015) for __rt_lib_init_lc_monetary_1
    libinit.o(.ARM.Collect$$libinit$$00000000) refers (Special) to libinit2.o(.ARM.Collect$$libinit$$00000017) for __rt_lib_init_lc_numeric_1
    libinit.o(.ARM.Collect$$libinit$$00000000) refers (Special) to libinit2.o(.ARM.Collect$$libinit$$00000019) for __rt_lib_init_lc_time_1
    libinit.o(.ARM.Collect$$libinit$$00000000) refers (Special) to libinit2.o(.ARM.Collect$$libinit$$00000004) for __rt_lib_init_preinit_1
    libinit.o(.ARM.Collect$$libinit$$00000000) refers (Special) to libinit2.o(.ARM.Collect$$libinit$$0000000E) for __rt_lib_init_rand_1
    libinit.o(.ARM.Collect$$libinit$$00000000) refers (Special) to libinit2.o(.ARM.Collect$$libinit$$00000033) for __rt_lib_init_return
    libinit.o(.ARM.Collect$$libinit$$00000000) refers (Special) to libinit2.o(.ARM.Collect$$libinit$$0000001D) for __rt_lib_init_signal_1
    libinit.o(.ARM.Collect$$libinit$$00000000) refers (Special) to libinit2.o(.ARM.Collect$$libinit$$00000025) for __rt_lib_init_stdio_1
    libinit.o(.ARM.Collect$$libinit$$00000000) refers (Special) to libinit2.o(.ARM.Collect$$libinit$$0000000C) for __rt_lib_init_user_alloc_1
    rtexit.o(.ARM.Collect$$rtexit$$00000000) refers (Special) to rtexit2.o(.ARM.Collect$$rtexit$$00000004) for __rt_exit_exit
    rtexit.o(.ARM.Collect$$rtexit$$00000000) refers (Special) to rtexit2.o(.ARM.Collect$$rtexit$$00000003) for __rt_exit_ls
    rtexit.o(.ARM.Collect$$rtexit$$00000000) refers (Special) to rtexit2.o(.ARM.Collect$$rtexit$$00000002) for __rt_exit_prels_1
    rtexit.o(.ARM.exidx) refers (Special) to rtexit2.o(.ARM.Collect$$rtexit$$00000004) for __rt_exit_exit
    rtexit.o(.ARM.exidx) refers (Special) to rtexit2.o(.ARM.Collect$$rtexit$$00000003) for __rt_exit_ls
    rtexit.o(.ARM.exidx) refers (Special) to rtexit2.o(.ARM.Collect$$rtexit$$00000002) for __rt_exit_prels_1
    rtexit.o(.ARM.exidx) refers to rtexit.o(.ARM.Collect$$rtexit$$00000000) for .ARM.Collect$$rtexit$$00000000
    __printf.o(.text) refers to _printf_percent.o(.ARM.Collect$$_printf_percent$$00000000) for _printf_percent
    _printf_str.o(.text) refers (Special) to _printf_char.o(.text) for _printf_cs_common
    _printf_str.o(.text) refers (Weak) to _printf_pad.o(.text) for _printf_pre_padding
    _printf_str.o(.text) refers (Weak) to _printf_pad.o(.text) for _printf_post_padding
    _printf_dec.o(.text) refers (Weak) to _printf_truncate.o(.text) for _printf_truncate_signed
    _printf_dec.o(.text) refers (Weak) to _printf_truncate.o(.text) for _printf_truncate_unsigned
    _printf_dec.o(.text) refers to _printf_intcommon.o(.text) for _printf_int_common
    _printf_char_common.o(.text) refers to __printf_flags_ss_wp.o(.text) for __printf
    _printf_wctomb.o(.text) refers (Special) to _printf_wchar.o(.text) for _printf_lcs_common
    _printf_wctomb.o(.text) refers to _wcrtomb.o(.text) for _wcrtomb
    _printf_wctomb.o(.text) refers (Weak) to _printf_pad.o(.text) for _printf_pre_padding
    _printf_wctomb.o(.text) refers (Weak) to _printf_pad.o(.text) for _printf_post_padding
    _printf_wctomb.o(.text) refers to _printf_wctomb.o(.constdata) for .constdata
    _printf_wctomb.o(.constdata) refers (Special) to _printf_wchar.o(.text) for _printf_lcs_common
    _printf_longlong_dec.o(.text) refers to lludiv10.o(.text) for _ll_udiv10
    _printf_longlong_dec.o(.text) refers to _printf_intcommon.o(.text) for _printf_int_common
    _printf_oct_ll.o(.text) refers to _printf_intcommon.o(.text) for _printf_int_common
    _printf_oct_int.o(.text) refers (Weak) to _printf_truncate.o(.text) for _printf_truncate_unsigned
    _printf_oct_int.o(.text) refers to _printf_intcommon.o(.text) for _printf_int_common
    _printf_oct_int_ll.o(.text) refers to _printf_intcommon.o(.text) for _printf_int_common
    _printf_oct_int_ll.o(.text) refers (Weak) to _printf_truncate.o(.text) for _printf_truncate_unsigned
    _printf_hex_ll.o(.text) refers to _printf_intcommon.o(.text) for _printf_int_common
    _printf_hex_ll.o(.text) refers to _printf_hex_ll.o(.constdata) for .constdata
    _printf_hex_int.o(.text) refers (Weak) to _printf_truncate.o(.text) for _printf_truncate_unsigned
    _printf_hex_int.o(.text) refers to _printf_intcommon.o(.text) for _printf_int_common
    _printf_hex_int.o(.text) refers to _printf_hex_int.o(.constdata) for .constdata
    _printf_hex_int_ll.o(.text) refers to _printf_intcommon.o(.text) for _printf_int_common
    _printf_hex_int_ll.o(.text) refers (Weak) to _printf_truncate.o(.text) for _printf_truncate_unsigned
    _printf_hex_int_ll.o(.text) refers to _printf_hex_int_ll.o(.constdata) for .constdata
    _printf_hex_ptr.o(.text) refers to _printf_intcommon.o(.text) for _printf_int_common
    _printf_hex_ptr.o(.text) refers to _printf_hex_ptr.o(.constdata) for .constdata
    _printf_hex_int_ptr.o(.text) refers to _printf_intcommon.o(.text) for _printf_int_common
    _printf_hex_int_ptr.o(.text) refers (Weak) to _printf_truncate.o(.text) for _printf_truncate_unsigned
    _printf_hex_int_ptr.o(.text) refers to _printf_hex_int_ptr.o(.constdata) for .constdata
    _printf_hex_ll_ptr.o(.text) refers to _printf_intcommon.o(.text) for _printf_int_common
    _printf_hex_ll_ptr.o(.text) refers to _printf_hex_ll_ptr.o(.constdata) for .constdata
    _printf_hex_int_ll_ptr.o(.text) refers to _printf_intcommon.o(.text) for _printf_int_common
    _printf_hex_int_ll_ptr.o(.text) refers (Weak) to _printf_truncate.o(.text) for _printf_truncate_unsigned
    _printf_hex_int_ll_ptr.o(.text) refers to _printf_hex_int_ll_ptr.o(.constdata) for .constdata
    __printf_flags.o(.text) refers to _printf_percent.o(.ARM.Collect$$_printf_percent$$00000000) for _printf_percent
    __printf_flags.o(.text) refers to __printf_flags.o(.constdata) for .constdata
    __printf_ss.o(.text) refers to _printf_percent.o(.ARM.Collect$$_printf_percent$$00000000) for _printf_percent
    __printf_flags_ss.o(.text) refers to _printf_percent.o(.ARM.Collect$$_printf_percent$$00000000) for _printf_percent
    __printf_flags_ss.o(.text) refers to __printf_flags_ss.o(.constdata) for .constdata
    __printf_wp.o(.text) refers to __printf_wp.o(i._is_digit) for _is_digit
    __printf_wp.o(.text) refers to _printf_percent.o(.ARM.Collect$$_printf_percent$$00000000) for _printf_percent
    __printf_flags_wp.o(.text) refers to __printf_wp.o(i._is_digit) for _is_digit
    __printf_flags_wp.o(.text) refers to _printf_percent.o(.ARM.Collect$$_printf_percent$$00000000) for _printf_percent
    __printf_flags_wp.o(.text) refers to __printf_flags_wp.o(.constdata) for .constdata
    __printf_ss_wp.o(.text) refers to __printf_wp.o(i._is_digit) for _is_digit
    __printf_ss_wp.o(.text) refers to _printf_percent.o(.ARM.Collect$$_printf_percent$$00000000) for _printf_percent
    __printf_flags_ss_wp.o(.text) refers to __printf_wp.o(i._is_digit) for _is_digit
    __printf_flags_ss_wp.o(.text) refers to _printf_percent.o(.ARM.Collect$$_printf_percent$$00000000) for _printf_percent
    __printf_flags_ss_wp.o(.text) refers to __printf_flags_ss_wp.o(.constdata) for .constdata
    _printf_c.o(.ARM.Collect$$_printf_percent$$00000013) refers (Weak) to _printf_char.o(.text) for _printf_char
    _printf_s.o(.ARM.Collect$$_printf_percent$$00000014) refers (Weak) to _printf_char.o(.text) for _printf_string
    _printf_n.o(.ARM.Collect$$_printf_percent$$00000001) refers (Weak) to _printf_charcount.o(.text) for _printf_charcount
    _printf_x.o(.ARM.Collect$$_printf_percent$$0000000C) refers (Weak) to _printf_hex_int_ll_ptr.o(.text) for _printf_int_hex
    _printf_p.o(.ARM.Collect$$_printf_percent$$00000002) refers (Weak) to _printf_hex_int_ll_ptr.o(.text) for _printf_hex_ptr
    _printf_o.o(.ARM.Collect$$_printf_percent$$0000000B) refers (Weak) to _printf_oct_int_ll.o(.text) for _printf_int_oct
    _printf_i.o(.ARM.Collect$$_printf_percent$$00000008) refers (Weak) to _printf_dec.o(.text) for _printf_int_dec
    _printf_d.o(.ARM.Collect$$_printf_percent$$00000009) refers (Weak) to _printf_dec.o(.text) for _printf_int_dec
    _printf_u.o(.ARM.Collect$$_printf_percent$$0000000A) refers (Weak) to _printf_dec.o(.text) for _printf_int_dec
    _printf_f.o(.ARM.Collect$$_printf_percent$$00000003) refers (Weak) to printf1.o(x$fpl$printf1) for _printf_fp_dec
    _printf_e.o(.ARM.Collect$$_printf_percent$$00000004) refers (Weak) to printf1.o(x$fpl$printf1) for _printf_fp_dec
    _printf_g.o(.ARM.Collect$$_printf_percent$$00000005) refers (Weak) to printf1.o(x$fpl$printf1) for _printf_fp_dec
    _printf_a.o(.ARM.Collect$$_printf_percent$$00000006) refers (Weak) to printf2.o(x$fpl$printf2) for _printf_fp_hex
    _printf_percent.o(.ARM.Collect$$_printf_percent$$00000000) refers (Special) to _printf_percent_end.o(.ARM.Collect$$_printf_percent$$00000017) for _printf_percent_end
    _printf_lli.o(.ARM.Collect$$_printf_percent$$0000000D) refers (Special) to _printf_ll.o(.ARM.Collect$$_printf_percent$$00000007) for _printf_ll
    _printf_lli.o(.ARM.Collect$$_printf_percent$$0000000D) refers (Weak) to _printf_longlong_dec.o(.text) for _printf_longlong_dec
    _printf_lld.o(.ARM.Collect$$_printf_percent$$0000000E) refers (Special) to _printf_ll.o(.ARM.Collect$$_printf_percent$$00000007) for _printf_ll
    _printf_lld.o(.ARM.Collect$$_printf_percent$$0000000E) refers (Weak) to _printf_longlong_dec.o(.text) for _printf_longlong_dec
    _printf_llu.o(.ARM.Collect$$_printf_percent$$0000000F) refers (Special) to _printf_ll.o(.ARM.Collect$$_printf_percent$$00000007) for _printf_ll
    _printf_llu.o(.ARM.Collect$$_printf_percent$$0000000F) refers (Weak) to _printf_longlong_dec.o(.text) for _printf_longlong_dec
    _printf_lc.o(.ARM.Collect$$_printf_percent$$00000015) refers (Special) to _printf_l.o(.ARM.Collect$$_printf_percent$$00000012) for _printf_l
    _printf_lc.o(.ARM.Collect$$_printf_percent$$00000015) refers (Weak) to _printf_wchar.o(.text) for _printf_wchar
    _printf_ls.o(.ARM.Collect$$_printf_percent$$00000016) refers (Special) to _printf_l.o(.ARM.Collect$$_printf_percent$$00000012) for _printf_l
    _printf_ls.o(.ARM.Collect$$_printf_percent$$00000016) refers (Weak) to _printf_wchar.o(.text) for _printf_wstring
    _printf_llo.o(.ARM.Collect$$_printf_percent$$00000010) refers (Special) to _printf_ll.o(.ARM.Collect$$_printf_percent$$00000007) for _printf_ll
    _printf_llo.o(.ARM.Collect$$_printf_percent$$00000010) refers (Weak) to _printf_oct_int_ll.o(.text) for _printf_ll_oct
    _printf_llx.o(.ARM.Collect$$_printf_percent$$00000011) refers (Special) to _printf_ll.o(.ARM.Collect$$_printf_percent$$00000007) for _printf_ll
    _printf_llx.o(.ARM.Collect$$_printf_percent$$00000011) refers (Weak) to _printf_hex_int_ll_ptr.o(.text) for _printf_ll_hex
    libinit2.o(.ARM.Collect$$libinit$$00000001) refers to fpinit.o(x$fpl$fpinit) for _fp_init
    libinit2.o(.ARM.Collect$$libinit$$0000000F) refers (Weak) to rt_locale_intlibspace.o(.text) for __rt_locale
    libinit2.o(.ARM.Collect$$libinit$$00000010) refers to libinit2.o(.ARM.Collect$$libinit$$0000000F) for .ARM.Collect$$libinit$$0000000F
    libinit2.o(.ARM.Collect$$libinit$$00000012) refers to libinit2.o(.ARM.Collect$$libinit$$0000000F) for .ARM.Collect$$libinit$$0000000F
    libinit2.o(.ARM.Collect$$libinit$$00000012) refers (Weak) to lc_ctype_c.o(locale$$code) for _get_lc_ctype
    libinit2.o(.ARM.Collect$$libinit$$00000014) refers to libinit2.o(.ARM.Collect$$libinit$$0000000F) for .ARM.Collect$$libinit$$0000000F
    libinit2.o(.ARM.Collect$$libinit$$00000016) refers to libinit2.o(.ARM.Collect$$libinit$$0000000F) for .ARM.Collect$$libinit$$0000000F
    libinit2.o(.ARM.Collect$$libinit$$00000016) refers (Weak) to lc_numeric_c.o(locale$$code) for _get_lc_numeric
    libinit2.o(.ARM.Collect$$libinit$$00000018) refers to libinit2.o(.ARM.Collect$$libinit$$0000000F) for .ARM.Collect$$libinit$$0000000F
    libinit2.o(.ARM.Collect$$libinit$$00000018) refers (Weak) to lc_time_c.o(locale$$code) for _get_lc_time
    libinit2.o(.ARM.Collect$$libinit$$00000026) refers to argv_veneer.o(.emb_text) for __ARM_argv_veneer
    libinit2.o(.ARM.Collect$$libinit$$00000027) refers to argv_veneer.o(.emb_text) for __ARM_argv_veneer
    printf1.o(x$fpl$printf1) refers to _printf_fp_dec.o(.text) for _printf_fp_dec_real
    printf2.o(x$fpl$printf2) refers to _printf_fp_hex.o(.text) for _printf_fp_hex_real
    printf2b.o(x$fpl$printf2) refers to _printf_fp_hex.o(.text) for _printf_fp_hex_real
    rtexit2.o(.ARM.Collect$$rtexit$$00000003) refers to libshutdown.o(.ARM.Collect$$libshutdown$$00000000) for __rt_lib_shutdown
    rtexit2.o(.ARM.Collect$$rtexit$$00000004) refers to sys_exit.o(.text) for _sys_exit
    rtexit2.o(.ARM.exidx) refers to rtexit2.o(.ARM.Collect$$rtexit$$00000001) for .ARM.Collect$$rtexit$$00000001
    rtexit2.o(.ARM.exidx) refers to rtexit2.o(.ARM.Collect$$rtexit$$00000003) for .ARM.Collect$$rtexit$$00000003
    rtexit2.o(.ARM.exidx) refers to rtexit2.o(.ARM.Collect$$rtexit$$00000004) for .ARM.Collect$$rtexit$$00000004
    _printf_intcommon.o(.text) refers (Weak) to _printf_pad.o(.text) for _printf_pre_padding
    _printf_intcommon.o(.text) refers (Weak) to _printf_pad.o(.text) for _printf_pre_padding
    _printf_intcommon.o(.text) refers (Weak) to _printf_pad.o(.text) for _printf_post_padding
    _printf_fp_dec.o(.text) refers (Special) to usenofp.o(x$fpl$usenofp) for __I$use$fp
    _printf_fp_dec.o(.text) refers (Special) to lc_numeric_c.o(locale$$code) for _get_lc_numeric
    _printf_fp_dec.o(.text) refers to bigflt0.o(.text) for _btod_etento
    _printf_fp_dec.o(.text) refers to btod.o(CL$$btod_d2e) for _btod_d2e
    _printf_fp_dec.o(.text) refers to btod.o(CL$$btod_ediv) for _btod_ediv
    _printf_fp_dec.o(.text) refers to btod.o(CL$$btod_emul) for _btod_emul
    _printf_fp_dec.o(.text) refers to lludiv10.o(.text) for _ll_udiv10
    _printf_fp_dec.o(.text) refers to fpclassify.o(i.__ARM_fpclassify) for __ARM_fpclassify
    _printf_fp_dec.o(.text) refers to _printf_fp_infnan.o(.text) for _printf_fp_infnan
    _printf_fp_dec.o(.text) refers (Weak) to _printf_pad.o(.text) for _printf_pre_padding
    _printf_fp_dec.o(.text) refers (Weak) to _printf_pad.o(.text) for _printf_pre_padding
    _printf_fp_dec.o(.text) refers to rt_locale_intlibspace.o(.text) for __rt_locale
    _printf_fp_dec.o(.text) refers (Weak) to _printf_pad.o(.text) for _printf_post_padding
    _printf_fp_hex.o(.text) refers (Special) to usenofp.o(x$fpl$usenofp) for __I$use$fp
    _printf_fp_hex.o(.text) refers to fpclassify.o(i.__ARM_fpclassify) for __ARM_fpclassify
    _printf_fp_hex.o(.text) refers to _printf_fp_infnan.o(.text) for _printf_fp_infnan
    _printf_fp_hex.o(.text) refers (Weak) to _printf_pad.o(.text) for _printf_pre_padding
    _printf_fp_hex.o(.text) refers (Weak) to _printf_pad.o(.text) for _printf_pre_padding
    _printf_fp_hex.o(.text) refers (Weak) to _printf_pad.o(.text) for _printf_post_padding
    _printf_fp_hex.o(.text) refers to _printf_fp_hex.o(.constdata) for .constdata
    _printf_fp_hex.o(.constdata) refers (Special) to usenofp.o(x$fpl$usenofp) for __I$use$fp
    _printf_char.o(.text) refers (Weak) to _printf_str.o(.text) for _printf_str
    _printf_wchar.o(.text) refers (Weak) to _printf_wctomb.o(.text) for _printf_wctomb
    _wcrtomb.o(.text) refers to rt_ctype_table.o(.text) for __rt_ctype_table
    argv_veneer.o(.emb_text) refers to no_argv.o(.text) for __ARM_get_argv
    sys_exit.o(.text) refers (Special) to use_no_semi.o(.text) for __I$use$semihosting
    sys_exit.o(.text) refers (Special) to indicate_semi.o(.text) for __semihosting_library_function
    _printf_fp_infnan.o(.text) refers (Weak) to _printf_pad.o(.text) for _printf_pre_padding
    _printf_fp_infnan.o(.text) refers (Weak) to _printf_pad.o(.text) for _printf_post_padding
    bigflt0.o(.text) refers (Special) to usenofp.o(x$fpl$usenofp) for __I$use$fp
    bigflt0.o(.text) refers to btod.o(CL$$btod_emul) for _btod_emul
    bigflt0.o(.text) refers to btod.o(CL$$btod_ediv) for _btod_ediv
    bigflt0.o(.text) refers to bigflt0.o(.constdata) for .constdata
    bigflt0.o(.constdata) refers (Special) to usenofp.o(x$fpl$usenofp) for __I$use$fp
    btod.o(CL$$btod_d2e) refers (Special) to usenofp.o(x$fpl$usenofp) for __I$use$fp
    btod.o(CL$$btod_d2e) refers to btod.o(CL$$btod_d2e_norm_op1) for _d2e_norm_op1
    btod.o(CL$$btod_d2e_norm_op1) refers (Special) to usenofp.o(x$fpl$usenofp) for __I$use$fp
    btod.o(CL$$btod_d2e_norm_op1) refers to btod.o(CL$$btod_d2e_denorm_low) for _d2e_denorm_low
    btod.o(CL$$btod_d2e_denorm_low) refers (Special) to usenofp.o(x$fpl$usenofp) for __I$use$fp
    btod.o(CL$$btod_emul) refers (Special) to usenofp.o(x$fpl$usenofp) for __I$use$fp
    btod.o(CL$$btod_emul) refers to btod.o(CL$$btod_mult_common) for __btod_mult_common
    btod.o(CL$$btod_emul) refers to btod.o(CL$$btod_e2e) for _e2e
    btod.o(CL$$btod_ediv) refers (Special) to usenofp.o(x$fpl$usenofp) for __I$use$fp
    btod.o(CL$$btod_ediv) refers to btod.o(CL$$btod_div_common) for __btod_div_common
    btod.o(CL$$btod_ediv) refers to btod.o(CL$$btod_e2e) for _e2e
    btod.o(CL$$btod_emuld) refers (Special) to usenofp.o(x$fpl$usenofp) for __I$use$fp
    btod.o(CL$$btod_emuld) refers to btod.o(CL$$btod_mult_common) for __btod_mult_common
    btod.o(CL$$btod_emuld) refers to btod.o(CL$$btod_e2d) for _e2d
    btod.o(CL$$btod_edivd) refers (Special) to usenofp.o(x$fpl$usenofp) for __I$use$fp
    btod.o(CL$$btod_edivd) refers to btod.o(CL$$btod_div_common) for __btod_div_common
    btod.o(CL$$btod_edivd) refers to btod.o(CL$$btod_e2d) for _e2d
    btod.o(CL$$btod_e2e) refers (Special) to usenofp.o(x$fpl$usenofp) for __I$use$fp
    btod.o(CL$$btod_e2d) refers (Special) to usenofp.o(x$fpl$usenofp) for __I$use$fp
    btod.o(CL$$btod_e2d) refers to btod.o(CL$$btod_e2e) for _e2e
    btod.o(CL$$btod_mult_common) refers (Special) to usenofp.o(x$fpl$usenofp) for __I$use$fp
    btod.o(CL$$btod_div_common) refers (Special) to usenofp.o(x$fpl$usenofp) for __I$use$fp
    lc_numeric_c.o(locale$$data) refers (Special) to libinit2.o(.ARM.Collect$$libinit$$00000016) for __rt_lib_init_lc_numeric_2
    lc_numeric_c.o(locale$$code) refers (Special) to libinit2.o(.ARM.Collect$$libinit$$00000016) for __rt_lib_init_lc_numeric_2
    lc_numeric_c.o(locale$$code) refers to shell.o(.text) for strcmp
    lc_numeric_c.o(locale$$code) refers to lc_numeric_c.o(locale$$data) for __lcnum_c_name
    _get_argv_nomalloc.o(.text) refers (Special) to hrguard.o(.text) for __heap_region$guard
    _get_argv_nomalloc.o(.text) refers to defsig_rtmem_outer.o(.text) for __rt_SIGRTMEM
    _get_argv_nomalloc.o(.text) refers to sys_command.o(.text) for _sys_command_string
    libshutdown.o(.ARM.Collect$$libshutdown$$00000000) refers (Special) to libshutdown2.o(.ARM.Collect$$libshutdown$$00000002) for __rt_lib_shutdown_cpp_1
    libshutdown.o(.ARM.Collect$$libshutdown$$00000000) refers (Special) to libshutdown2.o(.ARM.Collect$$libshutdown$$00000007) for __rt_lib_shutdown_fp_trap_1
    libshutdown.o(.ARM.Collect$$libshutdown$$00000000) refers (Special) to libshutdown2.o(.ARM.Collect$$libshutdown$$0000000F) for __rt_lib_shutdown_heap_1
    libshutdown.o(.ARM.Collect$$libshutdown$$00000000) refers (Special) to libshutdown2.o(.ARM.Collect$$libshutdown$$00000010) for __rt_lib_shutdown_return
    libshutdown.o(.ARM.Collect$$libshutdown$$00000000) refers (Special) to libshutdown2.o(.ARM.Collect$$libshutdown$$0000000A) for __rt_lib_shutdown_signal_1
    libshutdown.o(.ARM.Collect$$libshutdown$$00000000) refers (Special) to libshutdown2.o(.ARM.Collect$$libshutdown$$00000004) for __rt_lib_shutdown_stdio_1
    libshutdown.o(.ARM.Collect$$libshutdown$$00000000) refers (Special) to libshutdown2.o(.ARM.Collect$$libshutdown$$0000000C) for __rt_lib_shutdown_user_alloc_1
    istatus.o(x$fpl$ieeestatus) refers (Special) to usenofp.o(x$fpl$usenofp) for __I$use$fp
    fpclassify.o(i.__ARM_fpclassify) refers (Special) to usenofp.o(x$fpl$usenofp) for __I$use$fp
    sys_command.o(.text) refers (Special) to use_no_semi.o(.text) for __I$use$semihosting
    sys_command.o(.text) refers (Special) to indicate_semi.o(.text) for __semihosting_library_function
    defsig_rtmem_outer.o(.text) refers to defsig_rtmem_inner.o(.text) for __rt_SIGRTMEM_inner
    defsig_rtmem_outer.o(.text) refers to defsig_exit.o(.text) for __sig_exit
    defsig_rtmem_formal.o(.text) refers to rt_raise.o(.text) for __rt_raise
    rt_raise.o(.text) refers to __raise.o(.text) for __raise
    rt_raise.o(.text) refers to sys_exit.o(.text) for _sys_exit
    defsig_exit.o(.text) refers to sys_exit.o(.text) for _sys_exit
    defsig_rtmem_inner.o(.text) refers to defsig_general.o(.text) for __default_signal_display
    __raise.o(.text) refers to defsig.o(CL$$defsig) for __default_signal_handler
    defsig_general.o(.text) refers to sys_wrch.o(.text) for _ttywrch
    sys_wrch.o(.text) refers (Special) to use_no_semi.o(.text) for __I$use$semihosting
    sys_wrch.o(.text) refers (Special) to indicate_semi.o(.text) for __semihosting_library_function
    defsig.o(CL$$defsig) refers to defsig_rtmem_inner.o(.text) for __rt_SIGRTMEM_inner
    defsig_abrt_inner.o(.text) refers to defsig_general.o(.text) for __default_signal_display
    defsig_fpe_inner.o(.text) refers to defsig_general.o(.text) for __default_signal_display
    defsig_rtred_inner.o(.text) refers to defsig_general.o(.text) for __default_signal_display
    defsig_stak_inner.o(.text) refers to defsig_general.o(.text) for __default_signal_display
    defsig_pvfn_inner.o(.text) refers to defsig_general.o(.text) for __default_signal_display
    defsig_cppl_inner.o(.text) refers to defsig_general.o(.text) for __default_signal_display
    defsig_segv_inner.o(.text) refers to defsig_general.o(.text) for __default_signal_display
    defsig_other.o(.text) refers to defsig_general.o(.text) for __default_signal_display


==============================================================================

Removing Unused input sections from the image.

    Removing application.o(.emb_text), (8 bytes).
    Removing startup.o(.emb_text), (8 bytes).
    Removing board.o(.emb_text), (8 bytes).
    Removing platform.o(.emb_text), (8 bytes).
    Removing usart.o(.emb_text), (8 bytes).
    Removing ext_sram.o(.emb_text), (8 bytes).
    Removing stm32f4xx_it.o(.emb_text), (8 bytes).
    Removing sdio_sd.o(.emb_text), (8 bytes).
    Removing stm32f20x_40x_spi.o(.emb_text), (8 bytes).
    Removing stm32f4_rtc.o(.emb_text), (8 bytes).
    Removing system_stm32f4xx.o(.emb_text), (8 bytes).
    Removing misc.o(.emb_text), (8 bytes).
    Removing stm32f4xx_adc.o(.emb_text), (8 bytes).
    Removing stm32f4xx_adc.o(.text), (4060 bytes).
    Removing stm32f4xx_adc.o(.conststring), (67 bytes).
    Removing stm32f4xx_can.o(.emb_text), (8 bytes).
    Removing stm32f4xx_can.o(.text), (4284 bytes).
    Removing stm32f4xx_can.o(.conststring), (67 bytes).
    Removing stm32f4xx_crc.o(.emb_text), (8 bytes).
    Removing stm32f4xx_crc.o(.text), (72 bytes).
    Removing stm32f4xx_cryp.o(.emb_text), (8 bytes).
    Removing stm32f4xx_cryp.o(.text), (984 bytes).
    Removing stm32f4xx_cryp.o(.conststring), (68 bytes).
    Removing stm32f4xx_cryp_aes.o(.emb_text), (8 bytes).
    Removing stm32f4xx_cryp_aes.o(.text), (1524 bytes).
    Removing stm32f4xx_cryp_des.o(.emb_text), (8 bytes).
    Removing stm32f4xx_cryp_des.o(.text), (468 bytes).
    Removing stm32f4xx_cryp_tdes.o(.emb_text), (8 bytes).
    Removing stm32f4xx_cryp_tdes.o(.text), (532 bytes).
    Removing stm32f4xx_dac.o(.emb_text), (8 bytes).
    Removing stm32f4xx_dac.o(.text), (1476 bytes).
    Removing stm32f4xx_dac.o(.conststring), (67 bytes).
    Removing stm32f4xx_dbgmcu.o(.emb_text), (8 bytes).
    Removing stm32f4xx_dbgmcu.o(.text), (232 bytes).
    Removing stm32f4xx_dbgmcu.o(.conststring), (70 bytes).
    Removing stm32f4xx_dcmi.o(.emb_text), (8 bytes).
    Removing stm32f4xx_dcmi.o(.text), (860 bytes).
    Removing stm32f4xx_dcmi.o(.conststring), (68 bytes).
    Removing stm32f4xx_dma.o(.emb_text), (8 bytes).
    Removing stm32f4xx_exti.o(.emb_text), (8 bytes).
    Removing stm32f4xx_flash.o(.emb_text), (8 bytes).
    Removing stm32f4xx_flash.o(.text), (1864 bytes).
    Removing stm32f4xx_flash.o(.conststring), (69 bytes).
    Removing stm32f4xx_fsmc.o(.emb_text), (8 bytes).
    Removing stm32f4xx_fsmc.o(.text), (3344 bytes).
    Removing stm32f4xx_fsmc.o(.conststring), (68 bytes).
    Removing stm32f4xx_gpio.o(.emb_text), (8 bytes).
    Removing stm32f4xx_hash.o(.emb_text), (8 bytes).
    Removing stm32f4xx_hash.o(.text), (796 bytes).
    Removing stm32f4xx_hash.o(.conststring), (68 bytes).
    Removing stm32f4xx_hash_md5.o(.emb_text), (8 bytes).
    Removing stm32f4xx_hash_md5.o(.text), (534 bytes).
    Removing stm32f4xx_hash_sha1.o(.emb_text), (8 bytes).
    Removing stm32f4xx_hash_sha1.o(.text), (548 bytes).
    Removing stm32f4xx_i2c.o(.emb_text), (8 bytes).
    Removing stm32f4xx_i2c.o(.text), (3364 bytes).
    Removing stm32f4xx_i2c.o(.conststring), (67 bytes).
    Removing stm32f4xx_iwdg.o(.emb_text), (8 bytes).
    Removing stm32f4xx_iwdg.o(.text), (172 bytes).
    Removing stm32f4xx_iwdg.o(.conststring), (68 bytes).
    Removing stm32f4xx_pwr.o(.emb_text), (8 bytes).
    Removing stm32f4xx_rcc.o(.emb_text), (8 bytes).
    Removing stm32f4xx_rng.o(.emb_text), (8 bytes).
    Removing stm32f4xx_rng.o(.text), (308 bytes).
    Removing stm32f4xx_rng.o(.conststring), (67 bytes).
    Removing stm32f4xx_rtc.o(.emb_text), (8 bytes).
    Removing stm32f4xx_sdio.o(.emb_text), (8 bytes).
    Removing stm32f4xx_spi.o(.emb_text), (8 bytes).
    Removing stm32f4xx_syscfg.o(.emb_text), (8 bytes).
    Removing stm32f4xx_syscfg.o(.text), (332 bytes).
    Removing stm32f4xx_syscfg.o(.conststring), (70 bytes).
    Removing stm32f4xx_tim.o(.emb_text), (8 bytes).
    Removing stm32f4xx_tim.o(.text), (12780 bytes).
    Removing stm32f4xx_tim.o(.conststring), (67 bytes).
    Removing stm32f4xx_usart.o(.emb_text), (8 bytes).
    Removing stm32f4xx_wwdg.o(.emb_text), (8 bytes).
    Removing stm32f4xx_wwdg.o(.text), (240 bytes).
    Removing stm32f4xx_wwdg.o(.conststring), (68 bytes).
    Removing backtrace.o(.text), (2 bytes).
    Removing div0.o(.text), (4 bytes).
    Removing showmem.o(.text), (164 bytes).
    Removing showmem.o(.constdata), (18 bytes).
    Removing console.o(.text), (332 bytes).
    Removing console.o(.bss), (72 bytes).
    Removing console.o(.constdata), (27 bytes).
    Removing completion.o(.text), (584 bytes).
    Removing completion.o(.constdata), (57 bytes).

87 unused section(s) (total 41389 bytes) removed from the image.

==============================================================================

Image Symbol Table

    Local Symbols

    Symbol Name                              Value     Ov Type        Size  Object(Section)

    ../clib/angel/boardlib.s                 0x00000000   Number         0  boardshut.o ABSOLUTE
    ../clib/angel/boardlib.s                 0x00000000   Number         0  boardinit1.o ABSOLUTE
    ../clib/angel/boardlib.s                 0x00000000   Number         0  boardinit2.o ABSOLUTE
    ../clib/angel/boardlib.s                 0x00000000   Number         0  boardinit3.o ABSOLUTE
    ../clib/angel/dczerorl2.s                0x00000000   Number         0  __dczerorl2.o ABSOLUTE
    ../clib/angel/handlers.s                 0x00000000   Number         0  __scatter_zi.o ABSOLUTE
    ../clib/angel/kernel.s                   0x00000000   Number         0  rtexit2.o ABSOLUTE
    ../clib/angel/kernel.s                   0x00000000   Number         0  __rtentry2.o ABSOLUTE
    ../clib/angel/kernel.s                   0x00000000   Number         0  __rtentry4.o ABSOLUTE
    ../clib/angel/kernel.s                   0x00000000   Number         0  __rtentry.o ABSOLUTE
    ../clib/angel/kernel.s                   0x00000000   Number         0  rtexit.o ABSOLUTE
    ../clib/angel/rt.s                       0x00000000   Number         0  rt_raise.o ABSOLUTE
    ../clib/angel/rt.s                       0x00000000   Number         0  rt_errno_addr_intlibspace.o ABSOLUTE
    ../clib/angel/rt.s                       0x00000000   Number         0  rt_errno_addr.o ABSOLUTE
    ../clib/angel/rt.s                       0x00000000   Number         0  rt_locale_intlibspace.o ABSOLUTE
    ../clib/angel/rt.s                       0x00000000   Number         0  rt_ctype_table.o ABSOLUTE
    ../clib/angel/rt.s                       0x00000000   Number         0  rt_locale.o ABSOLUTE
    ../clib/angel/scatter.s                  0x00000000   Number         0  __scatter.o ABSOLUTE
    ../clib/angel/startup.s                  0x00000000   Number         0  __main.o ABSOLUTE
    ../clib/angel/sys.s                      0x00000000   Number         0  indicate_semi.o ABSOLUTE
    ../clib/angel/sys.s                      0x00000000   Number         0  libspace.o ABSOLUTE
    ../clib/angel/sys.s                      0x00000000   Number         0  use_no_semi.o ABSOLUTE
    ../clib/angel/sys.s                      0x00000000   Number         0  sys_stackheap_outer.o ABSOLUTE
    ../clib/angel/sysapp.c                   0x00000000   Number         0  sys_command.o ABSOLUTE
    ../clib/angel/sysapp.c                   0x00000000   Number         0  sys_wrch.o ABSOLUTE
    ../clib/angel/sysapp.c                   0x00000000   Number         0  sys_exit.o ABSOLUTE
    ../clib/armsys.c                         0x00000000   Number         0  argv_veneer.o ABSOLUTE
    ../clib/armsys.c                         0x00000000   Number         0  argv_veneer.o ABSOLUTE
    ../clib/armsys.c                         0x00000000   Number         0  _get_argv_nomalloc.o ABSOLUTE
    ../clib/armsys.c                         0x00000000   Number         0  no_argv.o ABSOLUTE
    ../clib/bigflt.c                         0x00000000   Number         0  bigflt0.o ABSOLUTE
    ../clib/btod.s                           0x00000000   Number         0  btod.o ABSOLUTE
    ../clib/heapalloc.c                      0x00000000   Number         0  hrguard.o ABSOLUTE
    ../clib/heapaux.c                        0x00000000   Number         0  heapauxi.o ABSOLUTE
    ../clib/libinit.s                        0x00000000   Number         0  libinit2.o ABSOLUTE
    ../clib/libinit.s                        0x00000000   Number         0  libshutdown.o ABSOLUTE
    ../clib/libinit.s                        0x00000000   Number         0  libshutdown2.o ABSOLUTE
    ../clib/libinit.s                        0x00000000   Number         0  libinit.o ABSOLUTE
    ../clib/locale.c                         0x00000000   Number         0  _wcrtomb.o ABSOLUTE
    ../clib/locale.s                         0x00000000   Number         0  lc_ctype_c.o ABSOLUTE
    ../clib/locale.s                         0x00000000   Number         0  lc_numeric_c.o ABSOLUTE
    ../clib/locale.s                         0x00000000   Number         0  lc_time_c.o ABSOLUTE
    ../clib/longlong.s                       0x00000000   Number         0  lludiv10.o ABSOLUTE
    ../clib/memcpset.s                       0x00000000   Number         0  strncpy.o ABSOLUTE
    ../clib/memcpset.s                       0x00000000   Number         0  rt_memclr_w.o ABSOLUTE
    ../clib/memcpset.s                       0x00000000   Number         0  rt_memclr.o ABSOLUTE
    ../clib/memcpset.s                       0x00000000   Number         0  rt_memcpy_w.o ABSOLUTE
    ../clib/memcpset.s                       0x00000000   Number         0  rt_memcpy_v6.o ABSOLUTE
    ../clib/misc.s                           0x00000000   Number         0  printf_stubs.o ABSOLUTE
    ../clib/printf.c                         0x00000000   Number         0  __printf_nopercent.o ABSOLUTE
    ../clib/printf.c                         0x00000000   Number         0  _printf_wchar.o ABSOLUTE
    ../clib/printf.c                         0x00000000   Number         0  _printf_dec.o ABSOLUTE
    ../clib/printf.c                         0x00000000   Number         0  _printf_charcount.o ABSOLUTE
    ../clib/printf.c                         0x00000000   Number         0  _printf_char_common.o ABSOLUTE
    ../clib/printf.c                         0x00000000   Number         0  _sputc.o ABSOLUTE
    ../clib/printf.c                         0x00000000   Number         0  _printf_char.o ABSOLUTE
    ../clib/printf.c                         0x00000000   Number         0  _printf_wctomb.o ABSOLUTE
    ../clib/printf.c                         0x00000000   Number         0  _printf_str.o ABSOLUTE
    ../clib/printf.c                         0x00000000   Number         0  _printf_truncate.o ABSOLUTE
    ../clib/printf.c                         0x00000000   Number         0  _printf_longlong_dec.o ABSOLUTE
    ../clib/printf.c                         0x00000000   Number         0  _printf_hex_int_ptr.o ABSOLUTE
    ../clib/printf.c                         0x00000000   Number         0  _printf_oct_ll.o ABSOLUTE
    ../clib/printf.c                         0x00000000   Number         0  _printf_pad.o ABSOLUTE
    ../clib/printf.c                         0x00000000   Number         0  _printf_intcommon.o ABSOLUTE
    ../clib/printf.c                         0x00000000   Number         0  _printf_fp_infnan.o ABSOLUTE
    ../clib/printf.c                         0x00000000   Number         0  __printf_flags_ss_wp.o ABSOLUTE
    ../clib/printf.c                         0x00000000   Number         0  _printf_hex_int_ll.o ABSOLUTE
    ../clib/printf.c                         0x00000000   Number         0  __printf_ss_wp.o ABSOLUTE
    ../clib/printf.c                         0x00000000   Number         0  __printf_flags_wp.o ABSOLUTE
    ../clib/printf.c                         0x00000000   Number         0  __printf_wp.o ABSOLUTE
    ../clib/printf.c                         0x00000000   Number         0  _printf_oct_int.o ABSOLUTE
    ../clib/printf.c                         0x00000000   Number         0  __printf_flags_ss.o ABSOLUTE
    ../clib/printf.c                         0x00000000   Number         0  __printf_ss.o ABSOLUTE
    ../clib/printf.c                         0x00000000   Number         0  __printf_flags.o ABSOLUTE
    ../clib/printf.c                         0x00000000   Number         0  _printf_hex_int_ll_ptr.o ABSOLUTE
    ../clib/printf.c                         0x00000000   Number         0  _printf_hex_int.o ABSOLUTE
    ../clib/printf.c                         0x00000000   Number         0  __printf.o ABSOLUTE
    ../clib/printf.c                         0x00000000   Number         0  _printf_hex_ptr.o ABSOLUTE
    ../clib/printf.c                         0x00000000   Number         0  _printf_oct_int_ll.o ABSOLUTE
    ../clib/printf.c                         0x00000000   Number         0  sprintf.o ABSOLUTE
    ../clib/printf.c                         0x00000000   Number         0  _printf_fp_dec.o ABSOLUTE
    ../clib/printf.c                         0x00000000   Number         0  _printf_hex_ll_ptr.o ABSOLUTE
    ../clib/printf.c                         0x00000000   Number         0  _printf_fp_hex.o ABSOLUTE
    ../clib/printf.c                         0x00000000   Number         0  _printf_hex_ll.o ABSOLUTE
    ../clib/printf_percent.s                 0x00000000   Number         0  _printf_llx.o ABSOLUTE
    ../clib/printf_percent.s                 0x00000000   Number         0  _printf_llo.o ABSOLUTE
    ../clib/printf_percent.s                 0x00000000   Number         0  _printf_ls.o ABSOLUTE
    ../clib/printf_percent.s                 0x00000000   Number         0  _printf_lc.o ABSOLUTE
    ../clib/printf_percent.s                 0x00000000   Number         0  _printf_c.o ABSOLUTE
    ../clib/printf_percent.s                 0x00000000   Number         0  _printf_s.o ABSOLUTE
    ../clib/printf_percent.s                 0x00000000   Number         0  _printf_x.o ABSOLUTE
    ../clib/printf_percent.s                 0x00000000   Number         0  _printf_p.o ABSOLUTE
    ../clib/printf_percent.s                 0x00000000   Number         0  _printf_i.o ABSOLUTE
    ../clib/printf_percent.s                 0x00000000   Number         0  _printf_d.o ABSOLUTE
    ../clib/printf_percent.s                 0x00000000   Number         0  _printf_u.o ABSOLUTE
    ../clib/printf_percent.s                 0x00000000   Number         0  _printf_f.o ABSOLUTE
    ../clib/printf_percent.s                 0x00000000   Number         0  _printf_e.o ABSOLUTE
    ../clib/printf_percent.s                 0x00000000   Number         0  _printf_g.o ABSOLUTE
    ../clib/printf_percent.s                 0x00000000   Number         0  _printf_a.o ABSOLUTE
    ../clib/printf_percent.s                 0x00000000   Number         0  _printf_percent.o ABSOLUTE
    ../clib/printf_percent.s                 0x00000000   Number         0  _printf_lli.o ABSOLUTE
    ../clib/printf_percent.s                 0x00000000   Number         0  _printf_lld.o ABSOLUTE
    ../clib/printf_percent.s                 0x00000000   Number         0  _printf_llu.o ABSOLUTE
    ../clib/printf_percent.s                 0x00000000   Number         0  _printf_ll.o ABSOLUTE
    ../clib/printf_percent.s                 0x00000000   Number         0  _printf_l.o ABSOLUTE
    ../clib/printf_percent.s                 0x00000000   Number         0  _printf_n.o ABSOLUTE
    ../clib/printf_percent.s                 0x00000000   Number         0  _printf_o.o ABSOLUTE
    ../clib/printf_percent.s                 0x00000000   Number         0  _printf_percent_end.o ABSOLUTE
    ../clib/scanf.c                          0x00000000   Number         0  _chval.o ABSOLUTE
    ../clib/scanf.c                          0x00000000   Number         0  strtol.o ABSOLUTE
    ../clib/scanf.c                          0x00000000   Number         0  _strtoul.o ABSOLUTE
    ../clib/scanf.c                          0x00000000   Number         0  atoi.o ABSOLUTE
    ../clib/signal.c                         0x00000000   Number         0  __raise.o ABSOLUTE
    ../clib/signal.c                         0x00000000   Number         0  defsig_rtmem_inner.o ABSOLUTE
    ../clib/signal.c                         0x00000000   Number         0  defsig_rtmem_outer.o ABSOLUTE
    ../clib/signal.c                         0x00000000   Number         0  defsig_other.o ABSOLUTE
    ../clib/signal.c                         0x00000000   Number         0  defsig_segv_inner.o ABSOLUTE
    ../clib/signal.c                         0x00000000   Number         0  defsig_cppl_inner.o ABSOLUTE
    ../clib/signal.c                         0x00000000   Number         0  defsig_pvfn_inner.o ABSOLUTE
    ../clib/signal.c                         0x00000000   Number         0  defsig_stak_inner.o ABSOLUTE
    ../clib/signal.c                         0x00000000   Number         0  defsig_rtred_inner.o ABSOLUTE
    ../clib/signal.c                         0x00000000   Number         0  defsig_fpe_inner.o ABSOLUTE
    ../clib/signal.c                         0x00000000   Number         0  defsig_abrt_inner.o ABSOLUTE
    ../clib/signal.c                         0x00000000   Number         0  defsig_rtmem_formal.o ABSOLUTE
    ../clib/signal.c                         0x00000000   Number         0  defsig_general.o ABSOLUTE
    ../clib/signal.c                         0x00000000   Number         0  defsig_exit.o ABSOLUTE
    ../clib/signal.s                         0x00000000   Number         0  defsig.o ABSOLUTE
    ../clib/stdlib.c                         0x00000000   Number         0  exit.o ABSOLUTE
    ../clib/string.c                         0x00000000   Number         0  strncmp.o ABSOLUTE
    ../clib/string.c                         0x00000000   Number         0  strcat.o ABSOLUTE
    ../clib/string.c                         0x00000000   Number         0  strlen.o ABSOLUTE
    ../clib/time.c                           0x00000000   Number         0  asctime_internal.o ABSOLUTE
    ../clib/time.c                           0x00000000   Number         0  mktime.o ABSOLUTE
    ../clib/time.c                           0x00000000   Number         0  localtime.o ABSOLUTE
    ../clib/time.c                           0x00000000   Number         0  _monlen.o ABSOLUTE
    ../clib/time.c                           0x00000000   Number         0  localtime_internal.o ABSOLUTE
    ../clib/time.c                           0x00000000   Number         0  ctime.o ABSOLUTE
    ../clib/time.c                           0x00000000   Number         0  asctime.o ABSOLUTE
    ../fplib/fpinit.s                        0x00000000   Number         0  fpinit.o ABSOLUTE
    ../fplib/istatus.s                       0x00000000   Number         0  istatus.o ABSOLUTE
    ../fplib/printf1.s                       0x00000000   Number         0  printf1.o ABSOLUTE
    ../fplib/printf2.s                       0x00000000   Number         0  printf2.o ABSOLUTE
    ../fplib/printf2a.s                      0x00000000   Number         0  printf2a.o ABSOLUTE
    ../fplib/printf2b.s                      0x00000000   Number         0  printf2b.o ABSOLUTE
    ../fplib/usenofp.s                       0x00000000   Number         0  usenofp.o ABSOLUTE
    ../mathlib/fpclassify.c                  0x00000000   Number         0  fpclassify.o ABSOLUTE
    ..\..\RT-Thread_1.2.0RC\components\dfs\filesystems\devfs\console.c 0x00000000   Number         0  console.o ABSOLUTE
    ..\..\RT-Thread_1.2.0RC\components\dfs\filesystems\devfs\devfs.c 0x00000000   Number         0  devfs.o ABSOLUTE
    ..\..\RT-Thread_1.2.0RC\components\dfs\filesystems\elmfat\dfs_elm.c 0x00000000   Number         0  dfs_elm.o ABSOLUTE
    ..\..\RT-Thread_1.2.0RC\components\dfs\filesystems\elmfat\ff.c 0x00000000   Number         0  ff.o ABSOLUTE
    ..\..\RT-Thread_1.2.0RC\components\dfs\filesystems\elmfat\option\ccfile.c 0x00000000   Number         0  ccfile.o ABSOLUTE
    ..\..\RT-Thread_1.2.0RC\components\dfs\src\dfs.c 0x00000000   Number         0  dfs.o ABSOLUTE
    ..\..\RT-Thread_1.2.0RC\components\dfs\src\dfs_file.c 0x00000000   Number         0  dfs_file.o ABSOLUTE
    ..\..\RT-Thread_1.2.0RC\components\dfs\src\dfs_fs.c 0x00000000   Number         0  dfs_fs.o ABSOLUTE
    ..\..\RT-Thread_1.2.0RC\components\dfs\src\dfs_posix.c 0x00000000   Number         0  dfs_posix.o ABSOLUTE
    ..\..\RT-Thread_1.2.0RC\components\drivers\rtc\rtc.c 0x00000000   Number         0  rtc.o ABSOLUTE
    ..\..\RT-Thread_1.2.0RC\components\drivers\serial\serial.c 0x00000000   Number         0  serial.o ABSOLUTE
    ..\..\RT-Thread_1.2.0RC\components\drivers\spi\spi_core.c 0x00000000   Number         0  spi_core.o ABSOLUTE
    ..\..\RT-Thread_1.2.0RC\components\drivers\spi\spi_dev.c 0x00000000   Number         0  spi_dev.o ABSOLUTE
    ..\..\RT-Thread_1.2.0RC\components\drivers\src\completion.c 0x00000000   Number         0  completion.o ABSOLUTE
    ..\..\RT-Thread_1.2.0RC\components\drivers\src\dataqueue.c 0x00000000   Number         0  dataqueue.o ABSOLUTE
    ..\..\RT-Thread_1.2.0RC\components\drivers\src\pipe.c 0x00000000   Number         0  pipe.o ABSOLUTE
    ..\..\RT-Thread_1.2.0RC\components\drivers\src\portal.c 0x00000000   Number         0  portal.o ABSOLUTE
    ..\..\RT-Thread_1.2.0RC\components\drivers\src\ringbuffer.c 0x00000000   Number         0  ringbuffer.o ABSOLUTE
    ..\..\RT-Thread_1.2.0RC\components\finsh\cmd.c 0x00000000   Number         0  cmd.o ABSOLUTE
    ..\..\RT-Thread_1.2.0RC\components\finsh\finsh_compiler.c 0x00000000   Number         0  finsh_compiler.o ABSOLUTE
    ..\..\RT-Thread_1.2.0RC\components\finsh\finsh_error.c 0x00000000   Number         0  finsh_error.o ABSOLUTE
    ..\..\RT-Thread_1.2.0RC\components\finsh\finsh_heap.c 0x00000000   Number         0  finsh_heap.o ABSOLUTE
    ..\..\RT-Thread_1.2.0RC\components\finsh\finsh_init.c 0x00000000   Number         0  finsh_init.o ABSOLUTE
    ..\..\RT-Thread_1.2.0RC\components\finsh\finsh_node.c 0x00000000   Number         0  finsh_node.o ABSOLUTE
    ..\..\RT-Thread_1.2.0RC\components\finsh\finsh_ops.c 0x00000000   Number         0  finsh_ops.o ABSOLUTE
    ..\..\RT-Thread_1.2.0RC\components\finsh\finsh_parser.c 0x00000000   Number         0  finsh_parser.o ABSOLUTE
    ..\..\RT-Thread_1.2.0RC\components\finsh\finsh_token.c 0x00000000   Number         0  finsh_token.o ABSOLUTE
    ..\..\RT-Thread_1.2.0RC\components\finsh\finsh_var.c 0x00000000   Number         0  finsh_var.o ABSOLUTE
    ..\..\RT-Thread_1.2.0RC\components\finsh\finsh_vm.c 0x00000000   Number         0  finsh_vm.o ABSOLUTE
    ..\..\RT-Thread_1.2.0RC\components\finsh\msh.c 0x00000000   Number         0  msh.o ABSOLUTE
    ..\..\RT-Thread_1.2.0RC\components\finsh\msh_cmd.c 0x00000000   Number         0  msh_cmd.o ABSOLUTE
    ..\..\RT-Thread_1.2.0RC\components\finsh\shell.c 0x00000000   Number         0  shell.o ABSOLUTE
    ..\..\RT-Thread_1.2.0RC\components\finsh\symbol.c 0x00000000   Number         0  symbol.o ABSOLUTE
    ..\..\RT-Thread_1.2.0RC\components\init\components.c 0x00000000   Number         0  components.o ABSOLUTE
    ..\..\RT-Thread_1.2.0RC\libcpu\arm\common\backtrace.c 0x00000000   Number         0  backtrace.o ABSOLUTE
    ..\..\RT-Thread_1.2.0RC\libcpu\arm\common\div0.c 0x00000000   Number         0  div0.o ABSOLUTE
    ..\..\RT-Thread_1.2.0RC\libcpu\arm\common\showmem.c 0x00000000   Number         0  showmem.o ABSOLUTE
    ..\..\RT-Thread_1.2.0RC\libcpu\arm\cortex-m4\context_rvds.S 0x00000000   Number         0  context_rvds.o ABSOLUTE
    ..\..\RT-Thread_1.2.0RC\libcpu\arm\cortex-m4\cpuport.c 0x00000000   Number         0  cpuport.o ABSOLUTE
    ..\..\RT-Thread_1.2.0RC\src\clock.c      0x00000000   Number         0  clock.o ABSOLUTE
    ..\..\RT-Thread_1.2.0RC\src\device.c     0x00000000   Number         0  device.o ABSOLUTE
    ..\..\RT-Thread_1.2.0RC\src\idle.c       0x00000000   Number         0  idle.o ABSOLUTE
    ..\..\RT-Thread_1.2.0RC\src\ipc.c        0x00000000   Number         0  ipc.o ABSOLUTE
    ..\..\RT-Thread_1.2.0RC\src\irq.c        0x00000000   Number         0  irq.o ABSOLUTE
    ..\..\RT-Thread_1.2.0RC\src\kservice.c   0x00000000   Number         0  kservice.o ABSOLUTE
    ..\..\RT-Thread_1.2.0RC\src\mem.c        0x00000000   Number         0  mem.o ABSOLUTE
    ..\..\RT-Thread_1.2.0RC\src\memheap.c    0x00000000   Number         0  memheap.o ABSOLUTE
    ..\..\RT-Thread_1.2.0RC\src\mempool.c    0x00000000   Number         0  mempool.o ABSOLUTE
    ..\..\RT-Thread_1.2.0RC\src\module.c     0x00000000   Number         0  module.o ABSOLUTE
    ..\..\RT-Thread_1.2.0RC\src\object.c     0x00000000   Number         0  object.o ABSOLUTE
    ..\..\RT-Thread_1.2.0RC\src\scheduler.c  0x00000000   Number         0  scheduler.o ABSOLUTE
    ..\..\RT-Thread_1.2.0RC\src\thread.c     0x00000000   Number         0  thread.o ABSOLUTE
    ..\..\RT-Thread_1.2.0RC\src\timer.c      0x00000000   Number         0  timer.o ABSOLUTE
    STM32F4xx_Libraries\CMSIS\ST\STM32F4xx\Source\Templates\arm\startup_stm32f4xx.s 0x00000000   Number         0  startup_stm32f4xx.o ABSOLUTE
    STM32F4xx_Libraries\CMSIS\ST\STM32F4xx\Source\Templates\system_stm32f4xx.c 0x00000000   Number         0  system_stm32f4xx.o ABSOLUTE
    STM32F4xx_Libraries\STM32F4xx_StdPeriph_Driver\src\misc.c 0x00000000   Number         0  misc.o ABSOLUTE
    STM32F4xx_Libraries\STM32F4xx_StdPeriph_Driver\src\stm32f4xx_adc.c 0x00000000   Number         0  stm32f4xx_adc.o ABSOLUTE
    STM32F4xx_Libraries\STM32F4xx_StdPeriph_Driver\src\stm32f4xx_can.c 0x00000000   Number         0  stm32f4xx_can.o ABSOLUTE
    STM32F4xx_Libraries\STM32F4xx_StdPeriph_Driver\src\stm32f4xx_crc.c 0x00000000   Number         0  stm32f4xx_crc.o ABSOLUTE
    STM32F4xx_Libraries\STM32F4xx_StdPeriph_Driver\src\stm32f4xx_cryp.c 0x00000000   Number         0  stm32f4xx_cryp.o ABSOLUTE
    STM32F4xx_Libraries\STM32F4xx_StdPeriph_Driver\src\stm32f4xx_cryp_aes.c 0x00000000   Number         0  stm32f4xx_cryp_aes.o ABSOLUTE
    STM32F4xx_Libraries\STM32F4xx_StdPeriph_Driver\src\stm32f4xx_cryp_des.c 0x00000000   Number         0  stm32f4xx_cryp_des.o ABSOLUTE
    STM32F4xx_Libraries\STM32F4xx_StdPeriph_Driver\src\stm32f4xx_cryp_tdes.c 0x00000000   Number         0  stm32f4xx_cryp_tdes.o ABSOLUTE
    STM32F4xx_Libraries\STM32F4xx_StdPeriph_Driver\src\stm32f4xx_dac.c 0x00000000   Number         0  stm32f4xx_dac.o ABSOLUTE
    STM32F4xx_Libraries\STM32F4xx_StdPeriph_Driver\src\stm32f4xx_dbgmcu.c 0x00000000   Number         0  stm32f4xx_dbgmcu.o ABSOLUTE
    STM32F4xx_Libraries\STM32F4xx_StdPeriph_Driver\src\stm32f4xx_dcmi.c 0x00000000   Number         0  stm32f4xx_dcmi.o ABSOLUTE
    STM32F4xx_Libraries\STM32F4xx_StdPeriph_Driver\src\stm32f4xx_dma.c 0x00000000   Number         0  stm32f4xx_dma.o ABSOLUTE
    STM32F4xx_Libraries\STM32F4xx_StdPeriph_Driver\src\stm32f4xx_exti.c 0x00000000   Number         0  stm32f4xx_exti.o ABSOLUTE
    STM32F4xx_Libraries\STM32F4xx_StdPeriph_Driver\src\stm32f4xx_flash.c 0x00000000   Number         0  stm32f4xx_flash.o ABSOLUTE
    STM32F4xx_Libraries\STM32F4xx_StdPeriph_Driver\src\stm32f4xx_fsmc.c 0x00000000   Number         0  stm32f4xx_fsmc.o ABSOLUTE
    STM32F4xx_Libraries\STM32F4xx_StdPeriph_Driver\src\stm32f4xx_gpio.c 0x00000000   Number         0  stm32f4xx_gpio.o ABSOLUTE
    STM32F4xx_Libraries\STM32F4xx_StdPeriph_Driver\src\stm32f4xx_hash.c 0x00000000   Number         0  stm32f4xx_hash.o ABSOLUTE
    STM32F4xx_Libraries\STM32F4xx_StdPeriph_Driver\src\stm32f4xx_hash_md5.c 0x00000000   Number         0  stm32f4xx_hash_md5.o ABSOLUTE
    STM32F4xx_Libraries\STM32F4xx_StdPeriph_Driver\src\stm32f4xx_hash_sha1.c 0x00000000   Number         0  stm32f4xx_hash_sha1.o ABSOLUTE
    STM32F4xx_Libraries\STM32F4xx_StdPeriph_Driver\src\stm32f4xx_i2c.c 0x00000000   Number         0  stm32f4xx_i2c.o ABSOLUTE
    STM32F4xx_Libraries\STM32F4xx_StdPeriph_Driver\src\stm32f4xx_iwdg.c 0x00000000   Number         0  stm32f4xx_iwdg.o ABSOLUTE
    STM32F4xx_Libraries\STM32F4xx_StdPeriph_Driver\src\stm32f4xx_pwr.c 0x00000000   Number         0  stm32f4xx_pwr.o ABSOLUTE
    STM32F4xx_Libraries\STM32F4xx_StdPeriph_Driver\src\stm32f4xx_rcc.c 0x00000000   Number         0  stm32f4xx_rcc.o ABSOLUTE
    STM32F4xx_Libraries\STM32F4xx_StdPeriph_Driver\src\stm32f4xx_rng.c 0x00000000   Number         0  stm32f4xx_rng.o ABSOLUTE
    STM32F4xx_Libraries\STM32F4xx_StdPeriph_Driver\src\stm32f4xx_rtc.c 0x00000000   Number         0  stm32f4xx_rtc.o ABSOLUTE
    STM32F4xx_Libraries\STM32F4xx_StdPeriph_Driver\src\stm32f4xx_sdio.c 0x00000000   Number         0  stm32f4xx_sdio.o ABSOLUTE
    STM32F4xx_Libraries\STM32F4xx_StdPeriph_Driver\src\stm32f4xx_spi.c 0x00000000   Number         0  stm32f4xx_spi.o ABSOLUTE
    STM32F4xx_Libraries\STM32F4xx_StdPeriph_Driver\src\stm32f4xx_syscfg.c 0x00000000   Number         0  stm32f4xx_syscfg.o ABSOLUTE
    STM32F4xx_Libraries\STM32F4xx_StdPeriph_Driver\src\stm32f4xx_tim.c 0x00000000   Number         0  stm32f4xx_tim.o ABSOLUTE
    STM32F4xx_Libraries\STM32F4xx_StdPeriph_Driver\src\stm32f4xx_usart.c 0x00000000   Number         0  stm32f4xx_usart.o ABSOLUTE
    STM32F4xx_Libraries\STM32F4xx_StdPeriph_Driver\src\stm32f4xx_wwdg.c 0x00000000   Number         0  stm32f4xx_wwdg.o ABSOLUTE
    STM32F4xx_Libraries\\CMSIS\\ST\\STM32F4xx\\Source\\Templates\\system_stm32f4xx.c 0x00000000   Number         0  system_stm32f4xx.o ABSOLUTE
    STM32F4xx_Libraries\\STM32F4xx_StdPeriph_Driver\\src\\misc.c 0x00000000   Number         0  misc.o ABSOLUTE
    STM32F4xx_Libraries\\STM32F4xx_StdPeriph_Driver\\src\\stm32f4xx_adc.c 0x00000000   Number         0  stm32f4xx_adc.o ABSOLUTE
    STM32F4xx_Libraries\\STM32F4xx_StdPeriph_Driver\\src\\stm32f4xx_can.c 0x00000000   Number         0  stm32f4xx_can.o ABSOLUTE
    STM32F4xx_Libraries\\STM32F4xx_StdPeriph_Driver\\src\\stm32f4xx_crc.c 0x00000000   Number         0  stm32f4xx_crc.o ABSOLUTE
    STM32F4xx_Libraries\\STM32F4xx_StdPeriph_Driver\\src\\stm32f4xx_cryp.c 0x00000000   Number         0  stm32f4xx_cryp.o ABSOLUTE
    STM32F4xx_Libraries\\STM32F4xx_StdPeriph_Driver\\src\\stm32f4xx_cryp_aes.c 0x00000000   Number         0  stm32f4xx_cryp_aes.o ABSOLUTE
    STM32F4xx_Libraries\\STM32F4xx_StdPeriph_Driver\\src\\stm32f4xx_cryp_des.c 0x00000000   Number         0  stm32f4xx_cryp_des.o ABSOLUTE
    STM32F4xx_Libraries\\STM32F4xx_StdPeriph_Driver\\src\\stm32f4xx_cryp_tdes.c 0x00000000   Number         0  stm32f4xx_cryp_tdes.o ABSOLUTE
    STM32F4xx_Libraries\\STM32F4xx_StdPeriph_Driver\\src\\stm32f4xx_dac.c 0x00000000   Number         0  stm32f4xx_dac.o ABSOLUTE
    STM32F4xx_Libraries\\STM32F4xx_StdPeriph_Driver\\src\\stm32f4xx_dbgmcu.c 0x00000000   Number         0  stm32f4xx_dbgmcu.o ABSOLUTE
    STM32F4xx_Libraries\\STM32F4xx_StdPeriph_Driver\\src\\stm32f4xx_dcmi.c 0x00000000   Number         0  stm32f4xx_dcmi.o ABSOLUTE
    STM32F4xx_Libraries\\STM32F4xx_StdPeriph_Driver\\src\\stm32f4xx_dma.c 0x00000000   Number         0  stm32f4xx_dma.o ABSOLUTE
    STM32F4xx_Libraries\\STM32F4xx_StdPeriph_Driver\\src\\stm32f4xx_exti.c 0x00000000   Number         0  stm32f4xx_exti.o ABSOLUTE
    STM32F4xx_Libraries\\STM32F4xx_StdPeriph_Driver\\src\\stm32f4xx_flash.c 0x00000000   Number         0  stm32f4xx_flash.o ABSOLUTE
    STM32F4xx_Libraries\\STM32F4xx_StdPeriph_Driver\\src\\stm32f4xx_fsmc.c 0x00000000   Number         0  stm32f4xx_fsmc.o ABSOLUTE
    STM32F4xx_Libraries\\STM32F4xx_StdPeriph_Driver\\src\\stm32f4xx_gpio.c 0x00000000   Number         0  stm32f4xx_gpio.o ABSOLUTE
    STM32F4xx_Libraries\\STM32F4xx_StdPeriph_Driver\\src\\stm32f4xx_hash.c 0x00000000   Number         0  stm32f4xx_hash.o ABSOLUTE
    STM32F4xx_Libraries\\STM32F4xx_StdPeriph_Driver\\src\\stm32f4xx_hash_md5.c 0x00000000   Number         0  stm32f4xx_hash_md5.o ABSOLUTE
    STM32F4xx_Libraries\\STM32F4xx_StdPeriph_Driver\\src\\stm32f4xx_hash_sha1.c 0x00000000   Number         0  stm32f4xx_hash_sha1.o ABSOLUTE
    STM32F4xx_Libraries\\STM32F4xx_StdPeriph_Driver\\src\\stm32f4xx_i2c.c 0x00000000   Number         0  stm32f4xx_i2c.o ABSOLUTE
    STM32F4xx_Libraries\\STM32F4xx_StdPeriph_Driver\\src\\stm32f4xx_iwdg.c 0x00000000   Number         0  stm32f4xx_iwdg.o ABSOLUTE
    STM32F4xx_Libraries\\STM32F4xx_StdPeriph_Driver\\src\\stm32f4xx_pwr.c 0x00000000   Number         0  stm32f4xx_pwr.o ABSOLUTE
    STM32F4xx_Libraries\\STM32F4xx_StdPeriph_Driver\\src\\stm32f4xx_rcc.c 0x00000000   Number         0  stm32f4xx_rcc.o ABSOLUTE
    STM32F4xx_Libraries\\STM32F4xx_StdPeriph_Driver\\src\\stm32f4xx_rng.c 0x00000000   Number         0  stm32f4xx_rng.o ABSOLUTE
    STM32F4xx_Libraries\\STM32F4xx_StdPeriph_Driver\\src\\stm32f4xx_rtc.c 0x00000000   Number         0  stm32f4xx_rtc.o ABSOLUTE
    STM32F4xx_Libraries\\STM32F4xx_StdPeriph_Driver\\src\\stm32f4xx_sdio.c 0x00000000   Number         0  stm32f4xx_sdio.o ABSOLUTE
    STM32F4xx_Libraries\\STM32F4xx_StdPeriph_Driver\\src\\stm32f4xx_spi.c 0x00000000   Number         0  stm32f4xx_spi.o ABSOLUTE
    STM32F4xx_Libraries\\STM32F4xx_StdPeriph_Driver\\src\\stm32f4xx_syscfg.c 0x00000000   Number         0  stm32f4xx_syscfg.o ABSOLUTE
    STM32F4xx_Libraries\\STM32F4xx_StdPeriph_Driver\\src\\stm32f4xx_tim.c 0x00000000   Number         0  stm32f4xx_tim.o ABSOLUTE
    STM32F4xx_Libraries\\STM32F4xx_StdPeriph_Driver\\src\\stm32f4xx_usart.c 0x00000000   Number         0  stm32f4xx_usart.o ABSOLUTE
    STM32F4xx_Libraries\\STM32F4xx_StdPeriph_Driver\\src\\stm32f4xx_wwdg.c 0x00000000   Number         0  stm32f4xx_wwdg.o ABSOLUTE
    applications\\application.c              0x00000000   Number         0  application.o ABSOLUTE
    applications\\startup.c                  0x00000000   Number         0  startup.o ABSOLUTE
    applications\application.c               0x00000000   Number         0  application.o ABSOLUTE
    applications\mnttable.c                  0x00000000   Number         0  mnttable.o ABSOLUTE
    applications\startup.c                   0x00000000   Number         0  startup.o ABSOLUTE
    dc.s                                     0x00000000   Number         0  dc.o ABSOLUTE
    drivers\\board.c                         0x00000000   Number         0  board.o ABSOLUTE
    drivers\\ext_sram.c                      0x00000000   Number         0  ext_sram.o ABSOLUTE
    drivers\\platform.c                      0x00000000   Number         0  platform.o ABSOLUTE
    drivers\\sdio_sd.c                       0x00000000   Number         0  sdio_sd.o ABSOLUTE
    drivers\\stm32f20x_40x_spi.c             0x00000000   Number         0  stm32f20x_40x_spi.o ABSOLUTE
    drivers\\stm32f4_rtc.c                   0x00000000   Number         0  stm32f4_rtc.o ABSOLUTE
    drivers\\stm32f4xx_it.c                  0x00000000   Number         0  stm32f4xx_it.o ABSOLUTE
    drivers\\usart.c                         0x00000000   Number         0  usart.o ABSOLUTE
    drivers\board.c                          0x00000000   Number         0  board.o ABSOLUTE
    drivers\ext_sram.c                       0x00000000   Number         0  ext_sram.o ABSOLUTE
    drivers\platform.c                       0x00000000   Number         0  platform.o ABSOLUTE
    drivers\sdio_sd.c                        0x00000000   Number         0  sdio_sd.o ABSOLUTE
    drivers\spi_flash_w25qxx.c               0x00000000   Number         0  spi_flash_w25qxx.o ABSOLUTE
    drivers\stm32f20x_40x_spi.c              0x00000000   Number         0  stm32f20x_40x_spi.o ABSOLUTE
    drivers\stm32f4_rtc.c                    0x00000000   Number         0  stm32f4_rtc.o ABSOLUTE
    drivers\stm32f4xx_it.c                   0x00000000   Number         0  stm32f4xx_it.o ABSOLUTE
    drivers\usart.c                          0x00000000   Number         0  usart.o ABSOLUTE
    RESET                                    0x08000000   Section      392  startup_stm32f4xx.o(RESET)
    !!!main                                  0x08000188   Section        8  __main.o(!!!main)
    !!!scatter                               0x08000190   Section       52  __scatter.o(!!!scatter)
    !!dczerorl2                              0x080001c4   Section       90  __dczerorl2.o(!!dczerorl2)
    !!handler_zi                             0x08000220   Section       28  __scatter_zi.o(!!handler_zi)
    .ARM.Collect$$_printf_percent$$00000000  0x0800023c   Section        0  _printf_percent.o(.ARM.Collect$$_printf_percent$$00000000)
    .ARM.Collect$$_printf_percent$$00000001  0x0800023c   Section        6  _printf_n.o(.ARM.Collect$$_printf_percent$$00000001)
    .ARM.Collect$$_printf_percent$$00000002  0x08000242   Section        6  _printf_p.o(.ARM.Collect$$_printf_percent$$00000002)
    .ARM.Collect$$_printf_percent$$00000003  0x08000248   Section        6  _printf_f.o(.ARM.Collect$$_printf_percent$$00000003)
    .ARM.Collect$$_printf_percent$$00000004  0x0800024e   Section        6  _printf_e.o(.ARM.Collect$$_printf_percent$$00000004)
    .ARM.Collect$$_printf_percent$$00000005  0x08000254   Section        6  _printf_g.o(.ARM.Collect$$_printf_percent$$00000005)
    .ARM.Collect$$_printf_percent$$00000006  0x0800025a   Section        6  _printf_a.o(.ARM.Collect$$_printf_percent$$00000006)
    .ARM.Collect$$_printf_percent$$00000007  0x08000260   Section       10  _printf_ll.o(.ARM.Collect$$_printf_percent$$00000007)
    .ARM.Collect$$_printf_percent$$00000008  0x0800026a   Section        6  _printf_i.o(.ARM.Collect$$_printf_percent$$00000008)
    .ARM.Collect$$_printf_percent$$00000009  0x08000270   Section        6  _printf_d.o(.ARM.Collect$$_printf_percent$$00000009)
    .ARM.Collect$$_printf_percent$$0000000A  0x08000276   Section        6  _printf_u.o(.ARM.Collect$$_printf_percent$$0000000A)
    .ARM.Collect$$_printf_percent$$0000000B  0x0800027c   Section        6  _printf_o.o(.ARM.Collect$$_printf_percent$$0000000B)
    .ARM.Collect$$_printf_percent$$0000000C  0x08000282   Section        6  _printf_x.o(.ARM.Collect$$_printf_percent$$0000000C)
    .ARM.Collect$$_printf_percent$$0000000D  0x08000288   Section        6  _printf_lli.o(.ARM.Collect$$_printf_percent$$0000000D)
    .ARM.Collect$$_printf_percent$$0000000E  0x0800028e   Section        6  _printf_lld.o(.ARM.Collect$$_printf_percent$$0000000E)
    .ARM.Collect$$_printf_percent$$0000000F  0x08000294   Section        6  _printf_llu.o(.ARM.Collect$$_printf_percent$$0000000F)
    .ARM.Collect$$_printf_percent$$00000010  0x0800029a   Section        6  _printf_llo.o(.ARM.Collect$$_printf_percent$$00000010)
    .ARM.Collect$$_printf_percent$$00000011  0x080002a0   Section        6  _printf_llx.o(.ARM.Collect$$_printf_percent$$00000011)
    .ARM.Collect$$_printf_percent$$00000012  0x080002a6   Section       10  _printf_l.o(.ARM.Collect$$_printf_percent$$00000012)
    .ARM.Collect$$_printf_percent$$00000013  0x080002b0   Section        6  _printf_c.o(.ARM.Collect$$_printf_percent$$00000013)
    .ARM.Collect$$_printf_percent$$00000014  0x080002b6   Section        6  _printf_s.o(.ARM.Collect$$_printf_percent$$00000014)
    .ARM.Collect$$_printf_percent$$00000015  0x080002bc   Section        6  _printf_lc.o(.ARM.Collect$$_printf_percent$$00000015)
    .ARM.Collect$$_printf_percent$$00000016  0x080002c2   Section        6  _printf_ls.o(.ARM.Collect$$_printf_percent$$00000016)
    .ARM.Collect$$_printf_percent$$00000017  0x080002c8   Section        4  _printf_percent_end.o(.ARM.Collect$$_printf_percent$$00000017)
    .ARM.Collect$$libinit$$00000000          0x080002cc   Section        2  libinit.o(.ARM.Collect$$libinit$$00000000)
    .ARM.Collect$$libinit$$00000001          0x080002ce   Section        4  libinit2.o(.ARM.Collect$$libinit$$00000001)
    .ARM.Collect$$libinit$$00000004          0x080002d2   Section        0  libinit2.o(.ARM.Collect$$libinit$$00000004)
    .ARM.Collect$$libinit$$0000000A          0x080002d2   Section        0  libinit2.o(.ARM.Collect$$libinit$$0000000A)
    .ARM.Collect$$libinit$$0000000C          0x080002d2   Section        0  libinit2.o(.ARM.Collect$$libinit$$0000000C)
    .ARM.Collect$$libinit$$0000000E          0x080002d2   Section        0  libinit2.o(.ARM.Collect$$libinit$$0000000E)
    .ARM.Collect$$libinit$$0000000F          0x080002d2   Section        6  libinit2.o(.ARM.Collect$$libinit$$0000000F)
    .ARM.Collect$$libinit$$00000011          0x080002d8   Section        0  libinit2.o(.ARM.Collect$$libinit$$00000011)
    .ARM.Collect$$libinit$$00000012          0x080002d8   Section       12  libinit2.o(.ARM.Collect$$libinit$$00000012)
    .ARM.Collect$$libinit$$00000013          0x080002e4   Section        0  libinit2.o(.ARM.Collect$$libinit$$00000013)
    .ARM.Collect$$libinit$$00000015          0x080002e4   Section        0  libinit2.o(.ARM.Collect$$libinit$$00000015)
    .ARM.Collect$$libinit$$00000016          0x080002e4   Section       10  libinit2.o(.ARM.Collect$$libinit$$00000016)
    .ARM.Collect$$libinit$$00000017          0x080002ee   Section        0  libinit2.o(.ARM.Collect$$libinit$$00000017)
    .ARM.Collect$$libinit$$00000018          0x080002ee   Section       10  libinit2.o(.ARM.Collect$$libinit$$00000018)
    .ARM.Collect$$libinit$$00000019          0x080002f8   Section        0  libinit2.o(.ARM.Collect$$libinit$$00000019)
    .ARM.Collect$$libinit$$0000001B          0x080002f8   Section        0  libinit2.o(.ARM.Collect$$libinit$$0000001B)
    .ARM.Collect$$libinit$$0000001D          0x080002f8   Section        0  libinit2.o(.ARM.Collect$$libinit$$0000001D)
    .ARM.Collect$$libinit$$0000001F          0x080002f8   Section        0  libinit2.o(.ARM.Collect$$libinit$$0000001F)
    .ARM.Collect$$libinit$$00000021          0x080002f8   Section        0  libinit2.o(.ARM.Collect$$libinit$$00000021)
    .ARM.Collect$$libinit$$00000023          0x080002f8   Section        0  libinit2.o(.ARM.Collect$$libinit$$00000023)
    .ARM.Collect$$libinit$$00000025          0x080002f8   Section        0  libinit2.o(.ARM.Collect$$libinit$$00000025)
    .ARM.Collect$$libinit$$0000002C          0x080002f8   Section        0  libinit2.o(.ARM.Collect$$libinit$$0000002C)
    .ARM.Collect$$libinit$$0000002E          0x080002f8   Section        0  libinit2.o(.ARM.Collect$$libinit$$0000002E)
    .ARM.Collect$$libinit$$00000030          0x080002f8   Section        0  libinit2.o(.ARM.Collect$$libinit$$00000030)
    .ARM.Collect$$libinit$$00000032          0x080002f8   Section        0  libinit2.o(.ARM.Collect$$libinit$$00000032)
    .ARM.Collect$$libinit$$00000033          0x080002f8   Section        2  libinit2.o(.ARM.Collect$$libinit$$00000033)
    .ARM.Collect$$libshutdown$$00000000      0x080002fa   Section        2  libshutdown.o(.ARM.Collect$$libshutdown$$00000000)
    .ARM.Collect$$libshutdown$$00000002      0x080002fc   Section        0  libshutdown2.o(.ARM.Collect$$libshutdown$$00000002)
    .ARM.Collect$$libshutdown$$00000004      0x080002fc   Section        0  libshutdown2.o(.ARM.Collect$$libshutdown$$00000004)
    .ARM.Collect$$libshutdown$$00000007      0x080002fc   Section        0  libshutdown2.o(.ARM.Collect$$libshutdown$$00000007)
    .ARM.Collect$$libshutdown$$0000000A      0x080002fc   Section        0  libshutdown2.o(.ARM.Collect$$libshutdown$$0000000A)
    .ARM.Collect$$libshutdown$$0000000C      0x080002fc   Section        0  libshutdown2.o(.ARM.Collect$$libshutdown$$0000000C)
    .ARM.Collect$$libshutdown$$0000000F      0x080002fc   Section        0  libshutdown2.o(.ARM.Collect$$libshutdown$$0000000F)
    .ARM.Collect$$libshutdown$$00000010      0x080002fc   Section        2  libshutdown2.o(.ARM.Collect$$libshutdown$$00000010)
    .ARM.Collect$$rtentry$$00000000          0x080002fe   Section        0  __rtentry.o(.ARM.Collect$$rtentry$$00000000)
    .ARM.Collect$$rtentry$$00000002          0x080002fe   Section        0  __rtentry2.o(.ARM.Collect$$rtentry$$00000002)
    .ARM.Collect$$rtentry$$00000004          0x080002fe   Section        6  __rtentry4.o(.ARM.Collect$$rtentry$$00000004)
    .ARM.Collect$$rtentry$$00000009          0x08000304   Section        0  __rtentry2.o(.ARM.Collect$$rtentry$$00000009)
    .ARM.Collect$$rtentry$$0000000A          0x08000304   Section        4  __rtentry2.o(.ARM.Collect$$rtentry$$0000000A)
    .ARM.Collect$$rtentry$$0000000C          0x08000308   Section        0  __rtentry2.o(.ARM.Collect$$rtentry$$0000000C)
    .ARM.Collect$$rtentry$$0000000D          0x08000308   Section        8  __rtentry2.o(.ARM.Collect$$rtentry$$0000000D)
    .ARM.Collect$$rtexit$$00000000           0x08000310   Section        2  rtexit.o(.ARM.Collect$$rtexit$$00000000)
    .ARM.Collect$$rtexit$$00000002           0x08000312   Section        0  rtexit2.o(.ARM.Collect$$rtexit$$00000002)
    .ARM.Collect$$rtexit$$00000003           0x08000312   Section        4  rtexit2.o(.ARM.Collect$$rtexit$$00000003)
    .ARM.Collect$$rtexit$$00000004           0x08000316   Section        6  rtexit2.o(.ARM.Collect$$rtexit$$00000004)
    .text                                    0x0800031c   Section        0  application.o(.text)
    .text                                    0x0800035c   Section        0  startup.o(.text)
    .text                                    0x08000408   Section        0  board.o(.text)
    mco_config                               0x080006af   Thumb Code    74  board.o(.text)
    reset                                    0x08000761   Thumb Code    38  board.o(.text)
    .text                                    0x080007b4   Section        0  platform.o(.text)
    rt_hw_spi2_init                          0x080007b5   Thumb Code   332  platform.o(.text)
    .text                                    0x0800096c   Section        0  usart.o(.text)
    stm32_configure                          0x0800096d   Thumb Code   198  usart.o(.text)
    stm32_control                            0x08000a33   Thumb Code   106  usart.o(.text)
    stm32_putc                               0x08000a9d   Thumb Code    60  usart.o(.text)
    stm32_getc                               0x08000ad9   Thumb Code    60  usart.o(.text)
    RCC_Configuration                        0x08000b55   Thumb Code    28  usart.o(.text)
    GPIO_Configuration                       0x08000b71   Thumb Code    62  usart.o(.text)
    NVIC_Configuration                       0x08000baf   Thumb Code    34  usart.o(.text)
    rt_hw_console_init                       0x08000c39   Thumb Code   128  usart.o(.text)
    .text                                    0x08000d7c   Section        0  stm32f4xx_it.o(.text)
    .text                                    0x08000dfc   Section        0  sdio_sd.o(.text)
    CmdResp1Error                            0x08001053   Thumb Code   302  sdio_sd.o(.text)
    FindSCR                                  0x08001181   Thumb Code   424  sdio_sd.o(.text)
    SDEnWideBus                              0x08001329   Thumb Code   274  sdio_sd.o(.text)
    CmdResp2Error                            0x080017cb   Thumb Code    70  sdio_sd.o(.text)
    CmdResp6Error                            0x08001811   Thumb Code   152  sdio_sd.o(.text)
    CmdResp3Error                            0x080019cf   Thumb Code    52  sdio_sd.o(.text)
    CmdResp7Error                            0x08001a03   Thumb Code    72  sdio_sd.o(.text)
    CmdError                                 0x08001a4b   Thumb Code    44  sdio_sd.o(.text)
    IsCardProgramming                        0x08002431   Thumb Code   396  sdio_sd.o(.text)
    rt_sdcard_init                           0x080027ef   Thumb Code    36  sdio_sd.o(.text)
    rt_sdcard_open                           0x08002813   Thumb Code     6  sdio_sd.o(.text)
    rt_sdcard_close                          0x08002819   Thumb Code     6  sdio_sd.o(.text)
    rt_sdcard_read                           0x0800281f   Thumb Code   194  sdio_sd.o(.text)
    rt_sdcard_write                          0x080028e1   Thumb Code   194  sdio_sd.o(.text)
    rt_sdcard_control                        0x080029a3   Thumb Code   106  sdio_sd.o(.text)
    .text                                    0x08002ba8   Section        0  stm32f20x_40x_spi.o(.text)
    configure                                0x08002ba9   Thumb Code   304  stm32f20x_40x_spi.o(.text)
    xfer                                     0x08002cd9   Thumb Code   256  stm32f20x_40x_spi.o(.text)
    .text                                    0x08002e48   Section        0  spi_flash_w25qxx.o(.text)
    flash_lock                               0x08002e49   Thumb Code    18  spi_flash_w25qxx.o(.text)
    flash_unlock                             0x08002e5b   Thumb Code    14  spi_flash_w25qxx.o(.text)
    w25qxx_read_status                       0x08002e69   Thumb Code    32  spi_flash_w25qxx.o(.text)
    w25qxx_wait_busy                         0x08002e89   Thumb Code    18  spi_flash_w25qxx.o(.text)
    w25qxx_read                              0x08002e9b   Thumb Code    70  spi_flash_w25qxx.o(.text)
    w25qxx_flash_init                        0x08002fb3   Thumb Code     6  spi_flash_w25qxx.o(.text)
    w25qxx_flash_open                        0x08002fb9   Thumb Code    72  spi_flash_w25qxx.o(.text)
    w25qxx_flash_close                       0x08003001   Thumb Code     6  spi_flash_w25qxx.o(.text)
    w25qxx_flash_control                     0x08003007   Thumb Code    76  spi_flash_w25qxx.o(.text)
    w25qxx_flash_read                        0x08003053   Thumb Code    52  spi_flash_w25qxx.o(.text)
    w25qxx_flash_write                       0x08003087   Thumb Code    52  spi_flash_w25qxx.o(.text)
    rt_spi_send                              0x08003431   Thumb Code    22  spi_flash_w25qxx.o(.text)
    .text                                    0x08003448   Section        0  stm32f4_rtc.o(.text)
    rt_rtc_open                              0x08003449   Thumb Code     6  stm32f4_rtc.o(.text)
    rt_rtc_read                              0x0800344f   Thumb Code     8  stm32f4_rtc.o(.text)
    rt_rtc_control                           0x08003457   Thumb Code   230  stm32f4_rtc.o(.text)
    WriteToBackupReg                         0x0800353d   Thumb Code    40  stm32f4_rtc.o(.text)
    RTC_Configuration                        0x08003565   Thumb Code   364  stm32f4_rtc.o(.text)
    .text                                    0x0800387c   Section        0  system_stm32f4xx.o(.text)
    SetSysClock                              0x0800387d   Thumb Code   220  system_stm32f4xx.o(.text)
    .text                                    0x08003a8c   Section        0  misc.o(.text)
    .text                                    0x08003c84   Section        0  stm32f4xx_dma.o(.text)
    .text                                    0x08004fec   Section        0  stm32f4xx_exti.o(.text)
    .text                                    0x080052c0   Section        0  stm32f4xx_gpio.o(.text)
    .text                                    0x08005b88   Section        0  stm32f4xx_pwr.o(.text)
    .text                                    0x08005d94   Section        0  stm32f4xx_rcc.o(.text)
    .text                                    0x08006a90   Section        0  stm32f4xx_rtc.o(.text)
    RTC_ByteToBcd2                           0x08006d8b   Thumb Code    28  stm32f4xx_rtc.o(.text)
    RTC_Bcd2ToByte                           0x08006da7   Thumb Code    22  stm32f4xx_rtc.o(.text)
    .text                                    0x08008184   Section        0  stm32f4xx_sdio.o(.text)
    .text                                    0x080087a0   Section        0  stm32f4xx_spi.o(.text)
    .text                                    0x080092e8   Section        0  stm32f4xx_usart.o(.text)
    .text                                    0x0800a10c   Section       64  startup_stm32f4xx.o(.text)
    $v0                                      0x0800a10c   Number         0  startup_stm32f4xx.o(.text)
    .text                                    0x0800a14c   Section        0  clock.o(.text)
    .text                                    0x0800a1b0   Section        0  device.o(.text)
    .text                                    0x0800a5e8   Section        0  idle.o(.text)
    rt_thread_idle_entry                     0x0800a6d1   Thumb Code    20  idle.o(.text)
    rt_list_isempty                          0x0800a70b   Thumb Code    16  idle.o(.text)
    .text                                    0x0800a784   Section        0  ipc.o(.text)
    rt_list_insert_before                    0x0800a785   Thumb Code    14  ipc.o(.text)
    rt_ipc_list_suspend                      0x0800a793   Thumb Code   108  ipc.o(.text)
    rt_ipc_list_resume_all                   0x0800a7ff   Thumb Code    50  ipc.o(.text)
    rt_list_init                             0x0800bfdf   Thumb Code     6  ipc.o(.text)
    rt_list_isempty                          0x0800bfe5   Thumb Code    16  ipc.o(.text)
    rt_ipc_object_init                       0x0800bff5   Thumb Code    16  ipc.o(.text)
    rt_ipc_list_resume                       0x0800c005   Thumb Code    24  ipc.o(.text)
    .text                                    0x0800c030   Section        0  irq.o(.text)
    .text                                    0x0800c078   Section        0  kservice.o(.text)
    print_number                             0x0800c325   Thumb Code   400  kservice.o(.text)
    skip_atoi                                0x0800c4b5   Thumb Code    38  kservice.o(.text)
    .text                                    0x0800ca2c   Section        0  mem.o(.text)
    plug_holes                               0x0800ca39   Thumb Code   214  mem.o(.text)
    .text                                    0x0800d3e0   Section        0  memheap.o(.text)
    .text                                    0x0800da04   Section        0  mempool.o(.text)
    rt_list_init                             0x0800ddbb   Thumb Code     6  mempool.o(.text)
    rt_list_isempty                          0x0800ddc1   Thumb Code    16  mempool.o(.text)
    .text                                    0x0800de44   Section        0  module.o(.text)
    rt_module_symbol_find                    0x0800de55   Thumb Code    38  module.o(.text)
    rt_module_arm_relocate                   0x0800de8d   Thumb Code   408  module.o(.text)
    rt_module_init_object_container          0x0800e025   Thumb Code   228  module.o(.text)
    _load_shared_object                      0x0800e115   Thumb Code  1118  module.o(.text)
    _load_relocated_object                   0x0800e573   Thumb Code  1402  module.o(.text)
    _module_name                             0x0800ec01   Thumb Code    84  module.o(.text)
    rt_list_init                             0x0800f1c1   Thumb Code     6  module.o(.text)
    .text                                    0x0800f1f0   Section        0  object.o(.text)
    rt_list_insert_after                     0x0800f1f1   Thumb Code    14  object.o(.text)
    rt_list_remove                           0x0800f1ff   Thumb Code    18  object.o(.text)
    .text                                    0x0800f578   Section        0  scheduler.o(.text)
    _rt_scheduler_stack_check                0x0800f57f   Thumb Code   100  scheduler.o(.text)
    rt_list_init                             0x0800f7eb   Thumb Code     6  scheduler.o(.text)
    .text                                    0x0800f8a4   Section        0  thread.o(.text)
    rt_list_insert_after                     0x0800f8a5   Thumb Code    14  thread.o(.text)
    rt_list_remove                           0x0800f8b3   Thumb Code    18  thread.o(.text)
    rt_thread_exit                           0x0800f8c5   Thumb Code    86  thread.o(.text)
    _rt_thread_init                          0x0800f981   Thumb Code   158  thread.o(.text)
    .text                                    0x0800ff6c   Section        0  timer.o(.text)
    rt_list_insert_before                    0x0800ff6d   Thumb Code    14  timer.o(.text)
    rt_list_remove                           0x0800ff7b   Thumb Code    18  timer.o(.text)
    _rt_timer_init                           0x0800ff93   Thumb Code    38  timer.o(.text)
    rt_timer_list_next_timeout               0x0800ffb9   Thumb Code    28  timer.o(.text)
    rt_list_isempty                          0x08010323   Thumb Code    16  timer.o(.text)
    .text                                    0x080103b4   Section        0  cpuport.o(.text)
    .text                                    0x08010574   Section      272  context_rvds.o(.text)
    $v0                                      0x08010574   Number         0  context_rvds.o(.text)
    .text                                    0x08010684   Section        0  dfs.o(.text)
    .text                                    0x08010a58   Section        0  dfs_fs.o(.text)
    .text                                    0x08011118   Section        0  dfs_file.o(.text)
    .text                                    0x080117f4   Section        0  dfs_posix.o(.text)
    .text                                    0x08011db8   Section        0  dfs_elm.o(.text)
    elm_result_to_dfs                        0x08011db9   Thumb Code    88  dfs_elm.o(.text)
    get_disk                                 0x08011e11   Thumb Code    32  dfs_elm.o(.text)
    .text                                    0x08012940   Section        0  ff.o(.text)
    mem_cpy                                  0x08012941   Thumb Code    26  ff.o(.text)
    mem_set                                  0x0801295b   Thumb Code    20  ff.o(.text)
    mem_cmp                                  0x0801296f   Thumb Code    38  ff.o(.text)
    chk_chr                                  0x08012995   Thumb Code    20  ff.o(.text)
    lock_fs                                  0x080129a9   Thumb Code    12  ff.o(.text)
    unlock_fs                                0x080129b5   Thumb Code    30  ff.o(.text)
    move_window                              0x080129d3   Thumb Code   114  ff.o(.text)
    sync                                     0x08012a45   Thumb Code   202  ff.o(.text)
    remove_chain                             0x08012dd5   Thumb Code   104  ff.o(.text)
    create_chain                             0x08012e3d   Thumb Code   202  ff.o(.text)
    clmt_clust                               0x08012f07   Thumb Code    56  ff.o(.text)
    dir_sdi                                  0x08012f3f   Thumb Code   220  ff.o(.text)
    dir_next                                 0x0801301b   Thumb Code   322  ff.o(.text)
    cmp_lfn                                  0x0801315d   Thumb Code   138  ff.o(.text)
    pick_lfn                                 0x080131e7   Thumb Code   112  ff.o(.text)
    fit_lfn                                  0x08013257   Thumb Code   122  ff.o(.text)
    sum_sfn                                  0x0801338f   Thumb Code    32  ff.o(.text)
    dir_find                                 0x080133af   Thumb Code   222  ff.o(.text)
    dir_read                                 0x0801348d   Thumb Code   190  ff.o(.text)
    dir_register                             0x0801354b   Thumb Code   402  ff.o(.text)
    dir_remove                               0x080136dd   Thumb Code    96  ff.o(.text)
    create_name                              0x0801373d   Thumb Code   604  ff.o(.text)
    get_fileinfo                             0x08013999   Thumb Code   316  ff.o(.text)
    follow_path                              0x08013ad5   Thumb Code   158  ff.o(.text)
    check_fs                                 0x08013b73   Thumb Code   164  ff.o(.text)
    chk_mounted                              0x08013c17   Thumb Code   928  ff.o(.text)
    validate                                 0x08013fb7   Thumb Code    74  ff.o(.text)
    .text                                    0x08015a20   Section        0  ccfile.o(.text)
    .text                                    0x08015b74   Section        0  devfs.o(.text)
    .text                                    0x08015f78   Section        0  rtc.o(.text)
    .text                                    0x080160b4   Section        0  serial.o(.text)
    rt_serial_init                           0x080160b5   Thumb Code   146  serial.o(.text)
    rt_serial_open                           0x08016147   Thumb Code    80  serial.o(.text)
    rt_serial_close                          0x08016197   Thumb Code    78  serial.o(.text)
    rt_serial_read                           0x080161e5   Thumb Code   188  serial.o(.text)
    rt_serial_write                          0x080162a1   Thumb Code   364  serial.o(.text)
    rt_serial_control                        0x0801640d   Thumb Code    94  serial.o(.text)
    .text                                    0x0801668c   Section        0  spi_core.o(.text)
    .text                                    0x08016df8   Section        0  spi_dev.o(.text)
    _spi_bus_device_init                     0x08016df9   Thumb Code    40  spi_dev.o(.text)
    _spi_bus_device_read                     0x08016e21   Thumb Code    92  spi_dev.o(.text)
    _spi_bus_device_write                    0x08016e7d   Thumb Code    92  spi_dev.o(.text)
    _spi_bus_device_control                  0x08016ed9   Thumb Code    58  spi_dev.o(.text)
    _spidev_device_init                      0x08016f5f   Thumb Code    40  spi_dev.o(.text)
    _spidev_device_read                      0x08016f87   Thumb Code    92  spi_dev.o(.text)
    _spidev_device_write                     0x08016fe3   Thumb Code    92  spi_dev.o(.text)
    _spidev_device_control                   0x0801703f   Thumb Code    58  spi_dev.o(.text)
    .text                                    0x08017190   Section        0  dataqueue.o(.text)
    rt_list_insert_before                    0x08017191   Thumb Code    14  dataqueue.o(.text)
    rt_list_init                             0x0801763f   Thumb Code     6  dataqueue.o(.text)
    rt_list_isempty                          0x08017645   Thumb Code    16  dataqueue.o(.text)
    .text                                    0x08017654   Section        0  pipe.o(.text)
    rt_list_insert_before                    0x08017655   Thumb Code    14  pipe.o(.text)
    _rt_pipe_resume_writer                   0x08017663   Thumb Code    74  pipe.o(.text)
    rt_pipe_read                             0x080176ad   Thumb Code   234  pipe.o(.text)
    _rt_pipe_resume_reader                   0x08017797   Thumb Code    96  pipe.o(.text)
    rt_pipe_write                            0x080177f7   Thumb Code   268  pipe.o(.text)
    rt_pipe_control                          0x08017903   Thumb Code     6  pipe.o(.text)
    rt_list_init                             0x08017a17   Thumb Code     6  pipe.o(.text)
    rt_list_isempty                          0x08017a1d   Thumb Code    16  pipe.o(.text)
    rt_ringbuffer_data_len                   0x08017a2d   Thumb Code   318  pipe.o(.text)
    .text                                    0x08017b6c   Section        0  portal.o(.text)
    _portal_init                             0x08017b6d   Thumb Code    62  portal.o(.text)
    _portal_open                             0x08017bab   Thumb Code    94  portal.o(.text)
    _portal_close                            0x08017c09   Thumb Code    52  portal.o(.text)
    _portal_read                             0x08017c3d   Thumb Code    28  portal.o(.text)
    _portal_write                            0x08017c59   Thumb Code    28  portal.o(.text)
    _portal_rx_indicate                      0x08017c75   Thumb Code    66  portal.o(.text)
    _portal_tx_complete                      0x08017cb7   Thumb Code    66  portal.o(.text)
    .text                                    0x08017ee0   Section        0  ringbuffer.o(.text)
    rt_ringbuffer_status                     0x08017ee1   Thumb Code    42  ringbuffer.o(.text)
    rt_ringbuffer_data_len                   0x08017f0b   Thumb Code    78  ringbuffer.o(.text)
    .text                                    0x08018420   Section        0  cmd.o(.text)
    rt_list_len                              0x08018421   Thumb Code    20  cmd.o(.text)
    _list_thread                             0x0801844b   Thumb Code   172  cmd.o(.text)
    show_wait_queue                          0x08018501   Thumb Code    40  cmd.o(.text)
    _list_sem                                0x08018529   Thumb Code   108  cmd.o(.text)
    _list_event                              0x080185a1   Thumb Code    96  cmd.o(.text)
    _list_mutex                              0x0801860d   Thumb Code    68  cmd.o(.text)
    _list_mailbox                            0x0801865d   Thumb Code   120  cmd.o(.text)
    _list_msgqueue                           0x080186e1   Thumb Code   108  cmd.o(.text)
    _list_memheap                            0x08018759   Thumb Code    54  cmd.o(.text)
    _list_mempool                            0x0801879b   Thumb Code   102  cmd.o(.text)
    _list_timer                              0x0801880d   Thumb Code  1054  cmd.o(.text)
    _list_device                             0x08018c35   Thumb Code    78  cmd.o(.text)
    str_is_prefix                            0x08018ed7   Thumb Code    34  cmd.o(.text)
    str_common                               0x08018ef9   Thumb Code    32  cmd.o(.text)
    rt_list_isempty                          0x080192b3   Thumb Code    16  cmd.o(.text)
    .text                                    0x080192f0   Section        0  finsh_compiler.o(.text)
    finsh_compile                            0x080192f1   Thumb Code  5680  finsh_compiler.o(.text)
    finsh_type_check                         0x0801a921   Thumb Code   350  finsh_compiler.o(.text)
    .text                                    0x0801aae8   Section        0  finsh_error.o(.text)
    .text                                    0x0801ab14   Section        0  finsh_heap.o(.text)
    finsh_block_insert                       0x0801ab39   Thumb Code    62  finsh_heap.o(.text)
    finsh_block_remove                       0x0801ab77   Thumb Code    46  finsh_heap.o(.text)
    finsh_block_split                        0x0801aba5   Thumb Code    24  finsh_heap.o(.text)
    finsh_block_merge                        0x0801abbd   Thumb Code   124  finsh_heap.o(.text)
    finsh_heap_gc                            0x0801ac5b   Thumb Code    78  finsh_heap.o(.text)
    .text                                    0x0801ad24   Section        0  finsh_init.o(.text)
    .text                                    0x0801ad7c   Section        0  finsh_node.o(.text)
    .text                                    0x0801af00   Section        0  finsh_ops.o(.text)
    .text                                    0x0801b9dc   Section        0  finsh_parser.o(.text)
    make_sys_node                            0x0801b9dd   Thumb Code    40  finsh_parser.o(.text)
    proc_param_list                          0x0801ba05   Thumb Code    76  finsh_parser.o(.text)
    proc_expr                                0x0801ba51   Thumb Code    12  finsh_parser.o(.text)
    proc_identifier                          0x0801ba5d   Thumb Code    44  finsh_parser.o(.text)
    proc_primary_expr                        0x0801ba89   Thumb Code   158  finsh_parser.o(.text)
    proc_postfix_expr                        0x0801bb27   Thumb Code   162  finsh_parser.o(.text)
    proc_unary_expr                          0x0801bbc9   Thumb Code   190  finsh_parser.o(.text)
    proc_type                                0x0801bc87   Thumb Code   250  finsh_parser.o(.text)
    proc_cast_expr                           0x0801bd81   Thumb Code    78  finsh_parser.o(.text)
    proc_multiplicative_expr                 0x0801bdcf   Thumb Code   138  finsh_parser.o(.text)
    proc_additive_expr                       0x0801be59   Thumb Code   114  finsh_parser.o(.text)
    proc_shift_expr                          0x0801becb   Thumb Code   116  finsh_parser.o(.text)
    proc_and_expr                            0x0801bf3f   Thumb Code    76  finsh_parser.o(.text)
    proc_exclusive_or_expr                   0x0801bf8b   Thumb Code    76  finsh_parser.o(.text)
    proc_inclusive_or_expr                   0x0801bfd7   Thumb Code    76  finsh_parser.o(.text)
    proc_assign_expr                         0x0801c023   Thumb Code    56  finsh_parser.o(.text)
    proc_variable_decl                       0x0801c05b   Thumb Code   474  finsh_parser.o(.text)
    proc_expr_statement                      0x0801c235   Thumb Code    56  finsh_parser.o(.text)
    .text                                    0x0801c358   Section        0  finsh_token.o(.text)
    token_prev_char                          0x0801c36d   Thumb Code    22  finsh_token.o(.text)
    token_next_char                          0x0801c383   Thumb Code    62  finsh_token.o(.text)
    token_spec_number                        0x0801c3c1   Thumb Code   152  finsh_token.o(.text)
    token_proc_number                        0x0801c459   Thumb Code   266  finsh_token.o(.text)
    token_proc_escape                        0x0801c563   Thumb Code   174  finsh_token.o(.text)
    token_proc_string                        0x0801c611   Thumb Code    80  finsh_token.o(.text)
    token_proc_char                          0x0801c661   Thumb Code   162  finsh_token.o(.text)
    token_match_name                         0x0801c703   Thumb Code    48  finsh_token.o(.text)
    token_trim_space                         0x0801c7ab   Thumb Code    34  finsh_token.o(.text)
    token_run                                0x0801c7cd   Thumb Code   414  finsh_token.o(.text)
    .text                                    0x0801c99c   Section        0  finsh_var.o(.text)
    .text                                    0x0801cb38   Section        0  finsh_vm.o(.text)
    .text                                    0x0801cc1c   Section        0  shell.o(.text)
    finsh_rx_ind                             0x0801cc7b   Thumb Code    52  shell.o(.text)
    .text                                    0x0801d438   Section        0  components.o(.text)
    rti_start                                0x0801d439   Thumb Code     4  components.o(.text)
    rti_board_end                            0x0801d43d   Thumb Code     4  components.o(.text)
    rti_end                                  0x0801d441   Thumb Code     4  components.o(.text)
    .text                                    0x0801d478   Section        0  atoi.o(.text)
    .text                                    0x0801d492   Section        0  strlen.o(.text)
    .text                                    0x0801d4d0   Section        0  strncmp.o(.text)
    .text                                    0x0801d566   Section        0  strcat.o(.text)
    .text                                    0x0801d57e   Section      138  rt_memcpy_v6.o(.text)
    .text                                    0x0801d608   Section      100  rt_memcpy_w.o(.text)
    .text                                    0x0801d66c   Section       68  rt_memclr.o(.text)
    .text                                    0x0801d6b0   Section       78  rt_memclr_w.o(.text)
    .text                                    0x0801d6fe   Section       86  strncpy.o(.text)
    .text                                    0x0801d754   Section        0  ctime.o(.text)
    .text                                    0x0801d764   Section        0  localtime.o(.text)
    .text                                    0x0801d770   Section        0  mktime.o(.text)
    _tm_carry                                0x0801d771   Thumb Code    62  mktime.o(.text)
    .text                                    0x0801d918   Section        0  heapauxi.o(.text)
    .text                                    0x0801d920   Section        8  rt_errno_addr_intlibspace.o(.text)
    .text                                    0x0801d928   Section        0  strtol.o(.text)
    .text                                    0x0801d998   Section        0  asctime.o(.text)
    .text                                    0x0801d9a4   Section        0  localtime_internal.o(.text)
    .text                                    0x0801da5c   Section        8  libspace.o(.text)
    .text                                    0x0801da64   Section       16  rt_ctype_table.o(.text)
    .text                                    0x0801da74   Section        0  _strtoul.o(.text)
    .text                                    0x0801db14   Section        0  asctime_internal.o(.text)
    .text                                    0x0801db7c   Section       74  sys_stackheap_outer.o(.text)
    .text                                    0x0801dbc8   Section        8  rt_locale_intlibspace.o(.text)
    .text                                    0x0801dbd0   Section        0  sprintf.o(.text)
    .text                                    0x0801dbfc   Section        0  _chval.o(.text)
    .text                                    0x0801dc18   Section        0  exit.o(.text)
    .text                                    0x0801dc2a   Section        0  _printf_pad.o(.text)
    .text                                    0x0801dc78   Section        0  _printf_truncate.o(.text)
    .text                                    0x0801dc9c   Section        0  _printf_str.o(.text)
    .text                                    0x0801dcf0   Section        0  _printf_dec.o(.text)
    .text                                    0x0801dd68   Section        0  _printf_charcount.o(.text)
    .text                                    0x0801dd90   Section        0  _printf_char_common.o(.text)
    _printf_input_char                       0x0801dd91   Thumb Code    10  _printf_char_common.o(.text)
    .text                                    0x0801ddc0   Section        0  _sputc.o(.text)
    .text                                    0x0801ddcc   Section        0  _printf_wctomb.o(.text)
    .text                                    0x0801de88   Section        0  _printf_longlong_dec.o(.text)
    .text                                    0x0801df04   Section        0  _printf_oct_int_ll.o(.text)
    _printf_longlong_oct_internal            0x0801df05   Thumb Code     0  _printf_oct_int_ll.o(.text)
    .text                                    0x0801df74   Section        0  _printf_hex_int_ll_ptr.o(.text)
    _printf_hex_common                       0x0801df75   Thumb Code     0  _printf_hex_int_ll_ptr.o(.text)
    .text                                    0x0801e008   Section        0  __printf_flags_ss_wp.o(.text)
    .text                                    0x0801e190   Section      138  lludiv10.o(.text)
    .text                                    0x0801e21a   Section        0  _printf_intcommon.o(.text)
    .text                                    0x0801e2cc   Section        0  _printf_fp_dec.o(.text)
    _fp_digits                               0x0801e2cf   Thumb Code   428  _printf_fp_dec.o(.text)
    .text                                    0x0801e6e8   Section        0  _printf_fp_hex.o(.text)
    .text                                    0x0801e9e4   Section        0  _printf_char.o(.text)
    .text                                    0x0801ea10   Section        0  _printf_wchar.o(.text)
    .text                                    0x0801ea3c   Section        0  _wcrtomb.o(.text)
    .text                                    0x0801ea7c   Section        0  sys_exit.o(.text)
    .text                                    0x0801ea88   Section        0  _printf_fp_infnan.o(.text)
    .text                                    0x0801eb08   Section        0  bigflt0.o(.text)
    .text                                    0x0801ebe4   Section        2  use_no_semi.o(.text)
    .text                                    0x0801ebe6   Section        0  indicate_semi.o(.text)
    CL$$btod_d2e                             0x0801ebe6   Section       62  btod.o(CL$$btod_d2e)
    CL$$btod_d2e_denorm_low                  0x0801ec24   Section       70  btod.o(CL$$btod_d2e_denorm_low)
    CL$$btod_d2e_norm_op1                    0x0801ec6a   Section       96  btod.o(CL$$btod_d2e_norm_op1)
    CL$$btod_div_common                      0x0801ecca   Section      824  btod.o(CL$$btod_div_common)
    CL$$btod_e2e                             0x0801f002   Section      198  btod.o(CL$$btod_e2e)
    CL$$btod_ediv                            0x0801f0c8   Section       40  btod.o(CL$$btod_ediv)
    CL$$btod_emul                            0x0801f0f0   Section       40  btod.o(CL$$btod_emul)
    CL$$btod_mult_common                     0x0801f118   Section      580  btod.o(CL$$btod_mult_common)
    i.__ARM_fpclassify                       0x0801f35c   Section        0  fpclassify.o(i.__ARM_fpclassify)
    i._is_digit                              0x0801f38c   Section        0  __printf_wp.o(i._is_digit)
    locale$$code                             0x0801f39c   Section       44  lc_ctype_c.o(locale$$code)
    locale$$code                             0x0801f3c8   Section       44  lc_time_c.o(locale$$code)
    locale$$code                             0x0801f3f4   Section       44  lc_numeric_c.o(locale$$code)
    x$fpl$fpinit                             0x0801f420   Section       10  fpinit.o(x$fpl$fpinit)
    $v0                                      0x0801f420   Number         0  fpinit.o(x$fpl$fpinit)
    x$fpl$printf1                            0x0801f42a   Section        4  printf1.o(x$fpl$printf1)
    $v0                                      0x0801f42a   Number         0  printf1.o(x$fpl$printf1)
    x$fpl$printf2                            0x0801f42e   Section        4  printf2.o(x$fpl$printf2)
    $v0                                      0x0801f42e   Number         0  printf2.o(x$fpl$printf2)
    x$fpl$usenofp                            0x0801f432   Section        0  usenofp.o(x$fpl$usenofp)
    .constdata                               0x0801f434   Section       60  mnttable.o(.constdata)
    .constdata                               0x0801f470   Section       12  board.o(.constdata)
    .constdata                               0x0801f47c   Section       72  usart.o(.constdata)
    stm32_uart_ops                           0x0801f47c   Data          20  usart.o(.constdata)
    __FUNCTION__                             0x0801f490   Data          16  usart.o(.constdata)
    __FUNCTION__                             0x0801f4a0   Data          14  usart.o(.constdata)
    __FUNCTION__                             0x0801f4ae   Data          11  usart.o(.constdata)
    __FUNCTION__                             0x0801f4b9   Data          11  usart.o(.constdata)
    .constdata                               0x0801f4c4   Section       18  sdio_sd.o(.constdata)
    __FUNCTION__                             0x0801f4c4   Data          18  sdio_sd.o(.constdata)
    .constdata                               0x0801f4d6   Section       39  spi_flash_w25qxx.o(.constdata)
    __FUNCTION__                             0x0801f4d6   Data          18  spi_flash_w25qxx.o(.constdata)
    __FUNCTION__                             0x0801f4e8   Data          21  spi_flash_w25qxx.o(.constdata)
    .constdata                               0x0801f4fd   Section       15  stm32f4_rtc.o(.constdata)
    __FUNCTION__                             0x0801f4fd   Data          15  stm32f4_rtc.o(.constdata)
    .constdata                               0x0801f50c   Section       37  clock.o(.constdata)
    .constdata                               0x0801f531   Section      355  device.o(.constdata)
    __FUNCTION__                             0x0801f5ec   Data          21  device.o(.constdata)
    __FUNCTION__                             0x0801f601   Data          15  device.o(.constdata)
    __FUNCTION__                             0x0801f610   Data          15  device.o(.constdata)
    __FUNCTION__                             0x0801f61f   Data          16  device.o(.constdata)
    __FUNCTION__                             0x0801f62f   Data          15  device.o(.constdata)
    __FUNCTION__                             0x0801f63e   Data          16  device.o(.constdata)
    __FUNCTION__                             0x0801f64e   Data          18  device.o(.constdata)
    __FUNCTION__                             0x0801f660   Data          26  device.o(.constdata)
    __FUNCTION__                             0x0801f67a   Data          26  device.o(.constdata)
    .constdata                               0x0801f694   Section       22  idle.o(.constdata)
    __FUNCTION__                             0x0801f694   Data          22  idle.o(.constdata)
    .constdata                               0x0801f6aa   Section      983  ipc.o(.constdata)
    __FUNCTION__                             0x0801f8bb   Data          12  ipc.o(.constdata)
    __FUNCTION__                             0x0801f8c7   Data          14  ipc.o(.constdata)
    __FUNCTION__                             0x0801f8d5   Data          14  ipc.o(.constdata)
    __FUNCTION__                             0x0801f8e3   Data          14  ipc.o(.constdata)
    __FUNCTION__                             0x0801f8f1   Data          12  ipc.o(.constdata)
    __FUNCTION__                             0x0801f8fd   Data          15  ipc.o(.constdata)
    __FUNCTION__                             0x0801f90c   Data          14  ipc.o(.constdata)
    __FUNCTION__                             0x0801f91a   Data          16  ipc.o(.constdata)
    __FUNCTION__                             0x0801f92a   Data          16  ipc.o(.constdata)
    __FUNCTION__                             0x0801f93a   Data          16  ipc.o(.constdata)
    __FUNCTION__                             0x0801f94a   Data          14  ipc.o(.constdata)
    __FUNCTION__                             0x0801f958   Data          14  ipc.o(.constdata)
    __FUNCTION__                             0x0801f966   Data          16  ipc.o(.constdata)
    __FUNCTION__                             0x0801f976   Data          16  ipc.o(.constdata)
    __FUNCTION__                             0x0801f986   Data          16  ipc.o(.constdata)
    __FUNCTION__                             0x0801f996   Data          14  ipc.o(.constdata)
    __FUNCTION__                             0x0801f9a4   Data          14  ipc.o(.constdata)
    __FUNCTION__                             0x0801f9b2   Data          17  ipc.o(.constdata)
    __FUNCTION__                             0x0801f9c3   Data          11  ipc.o(.constdata)
    __FUNCTION__                             0x0801f9ce   Data          13  ipc.o(.constdata)
    __FUNCTION__                             0x0801f9db   Data          13  ipc.o(.constdata)
    __FUNCTION__                             0x0801f9e8   Data          13  ipc.o(.constdata)
    __FUNCTION__                             0x0801f9f5   Data          16  ipc.o(.constdata)
    __FUNCTION__                             0x0801fa05   Data          11  ipc.o(.constdata)
    __FUNCTION__                             0x0801fa10   Data          14  ipc.o(.constdata)
    __FUNCTION__                             0x0801fa1e   Data          11  ipc.o(.constdata)
    __FUNCTION__                             0x0801fa29   Data          13  ipc.o(.constdata)
    __FUNCTION__                             0x0801fa36   Data          13  ipc.o(.constdata)
    __FUNCTION__                             0x0801fa43   Data          13  ipc.o(.constdata)
    __FUNCTION__                             0x0801fa50   Data          11  ipc.o(.constdata)
    __FUNCTION__                             0x0801fa5b   Data          13  ipc.o(.constdata)
    __FUNCTION__                             0x0801fa68   Data          11  ipc.o(.constdata)
    __FUNCTION__                             0x0801fa73   Data          14  ipc.o(.constdata)
    .constdata                               0x0801fa81   Section      107  irq.o(.constdata)
    .constdata                               0x0801faec   Section      613  kservice.o(.constdata)
    small_digits                             0x0801fd2f   Data          17  kservice.o(.constdata)
    large_digits                             0x0801fd40   Data          17  kservice.o(.constdata)
    .constdata                               0x0801fd51   Section      148  mem.o(.constdata)
    __FUNCTION__                             0x0801fd9f   Data          11  mem.o(.constdata)
    __FUNCTION__                             0x0801fdaa   Data          20  mem.o(.constdata)
    __FUNCTION__                             0x0801fdbe   Data          10  mem.o(.constdata)
    __FUNCTION__                             0x0801fdc8   Data          11  mem.o(.constdata)
    __FUNCTION__                             0x0801fdd3   Data          10  mem.o(.constdata)
    __FUNCTION__                             0x0801fddd   Data           8  mem.o(.constdata)
    .constdata                               0x0801fde5   Section      172  memheap.o(.constdata)
    __FUNCTION__                             0x0801fe3b   Data          16  memheap.o(.constdata)
    __FUNCTION__                             0x0801fe4b   Data          18  memheap.o(.constdata)
    __FUNCTION__                             0x0801fe5d   Data          17  memheap.o(.constdata)
    __FUNCTION__                             0x0801fe6e   Data          19  memheap.o(.constdata)
    __FUNCTION__                             0x0801fe81   Data          16  memheap.o(.constdata)
    .constdata                               0x0801fe91   Section      135  mempool.o(.constdata)
    __FUNCTION__                             0x0801feda   Data          11  mempool.o(.constdata)
    __FUNCTION__                             0x0801fee5   Data          13  mempool.o(.constdata)
    __FUNCTION__                             0x0801fef2   Data          13  mempool.o(.constdata)
    __FUNCTION__                             0x0801feff   Data          13  mempool.o(.constdata)
    __FUNCTION__                             0x0801ff0c   Data          12  mempool.o(.constdata)
    .constdata                               0x0801ff18   Section      161  module.o(.constdata)
    __FUNCTION__                             0x0801ff35   Data          32  module.o(.constdata)
    __FUNCTION__                             0x0801ff55   Data          20  module.o(.constdata)
    __FUNCTION__                             0x0801ff69   Data          15  module.o(.constdata)
    __FUNCTION__                             0x0801ff78   Data          15  module.o(.constdata)
    __FUNCTION__                             0x0801ff87   Data          18  module.o(.constdata)
    __FUNCTION__                             0x0801ff99   Data          17  module.o(.constdata)
    __FUNCTION__                             0x0801ffaa   Data          15  module.o(.constdata)
    .constdata                               0x0801ffb9   Section      120  object.o(.constdata)
    __FUNCTION__                             0x0801ffd3   Data          17  object.o(.constdata)
    __FUNCTION__                             0x0801ffe4   Data          19  object.o(.constdata)
    __FUNCTION__                             0x0801fff7   Data          17  object.o(.constdata)
    __FUNCTION__                             0x08020008   Data          26  object.o(.constdata)
    __FUNCTION__                             0x08020022   Data          15  object.o(.constdata)
    .constdata                               0x08020031   Section       78  scheduler.o(.constdata)
    __FUNCTION__                             0x08020031   Data          26  scheduler.o(.constdata)
    __FUNCTION__                             0x0802004b   Data          26  scheduler.o(.constdata)
    __FUNCTION__                             0x08020065   Data          26  scheduler.o(.constdata)
    .constdata                               0x0802007f   Section      387  thread.o(.constdata)
    __FUNCTION__                             0x08020158   Data          16  thread.o(.constdata)
    __FUNCTION__                             0x08020168   Data          15  thread.o(.constdata)
    __FUNCTION__                             0x08020177   Data          18  thread.o(.constdata)
    __FUNCTION__                             0x08020189   Data          17  thread.o(.constdata)
    __FUNCTION__                             0x0802019a   Data          17  thread.o(.constdata)
    __FUNCTION__                             0x080201ab   Data          16  thread.o(.constdata)
    __FUNCTION__                             0x080201bb   Data          18  thread.o(.constdata)
    __FUNCTION__                             0x080201cd   Data          18  thread.o(.constdata)
    __FUNCTION__                             0x080201df   Data          17  thread.o(.constdata)
    __FUNCTION__                             0x080201f0   Data          18  thread.o(.constdata)
    .constdata                               0x08020202   Section      200  timer.o(.constdata)
    __FUNCTION__                             0x0802026e   Data          14  timer.o(.constdata)
    __FUNCTION__                             0x0802027c   Data          16  timer.o(.constdata)
    __FUNCTION__                             0x0802028c   Data          16  timer.o(.constdata)
    __FUNCTION__                             0x0802029c   Data          15  timer.o(.constdata)
    __FUNCTION__                             0x080202ab   Data          14  timer.o(.constdata)
    __FUNCTION__                             0x080202b9   Data          17  timer.o(.constdata)
    .constdata                               0x080202ca   Section       19  cpuport.o(.constdata)
    __FUNCTION__                             0x080202ca   Data          19  cpuport.o(.constdata)
    .constdata                               0x080202dd   Section       35  dfs.o(.constdata)
    __FUNCTION__                             0x080202dd   Data           9  dfs.o(.constdata)
    __FUNCTION__                             0x080202e6   Data           7  dfs.o(.constdata)
    __FUNCTION__                             0x080202ed   Data          19  dfs.o(.constdata)
    .constdata                               0x08020300   Section       70  dfs_fs.o(.constdata)
    __FUNCTION__                             0x08020329   Data          29  dfs_fs.o(.constdata)
    .constdata                               0x08020346   Section      115  dfs_file.o(.constdata)
    .constdata                               0x080203b9   Section      197  dfs_posix.o(.constdata)
    .constdata                               0x08020480   Section      185  dfs_elm.o(.constdata)
    dfs_elm                                  0x08020480   Data          68  dfs_elm.o(.constdata)
    __FUNCTION__                             0x080204c4   Data          16  dfs_elm.o(.constdata)
    __FUNCTION__                             0x080204d4   Data          15  dfs_elm.o(.constdata)
    __FUNCTION__                             0x080204e3   Data          14  dfs_elm.o(.constdata)
    __FUNCTION__                             0x080204f1   Data          13  dfs_elm.o(.constdata)
    __FUNCTION__                             0x080204fe   Data          14  dfs_elm.o(.constdata)
    __FUNCTION__                             0x0802050c   Data          14  dfs_elm.o(.constdata)
    __FUNCTION__                             0x0802051a   Data          14  dfs_elm.o(.constdata)
    __FUNCTION__                             0x08020528   Data          17  dfs_elm.o(.constdata)
    .constdata                               0x0802053a   Section       58  ff.o(.constdata)
    LfnOfs                                   0x0802053a   Data          13  ff.o(.constdata)
    vst                                      0x08020548   Data          22  ff.o(.constdata)
    cst                                      0x0802055e   Data          22  ff.o(.constdata)
    .constdata                               0x08020574   Section      960  ccfile.o(.constdata)
    tbl_lower                                0x08020574   Data         480  ccfile.o(.constdata)
    tbl_upper                                0x08020754   Data         480  ccfile.o(.constdata)
    .constdata                               0x08020934   Section      170  devfs.o(.constdata)
    _device_fs                               0x08020934   Data          68  devfs.o(.constdata)
    __FUNCTION__                             0x08020978   Data          20  devfs.o(.constdata)
    __FUNCTION__                             0x0802098c   Data          19  devfs.o(.constdata)
    __FUNCTION__                             0x0802099f   Data          20  devfs.o(.constdata)
    __FUNCTION__                             0x080209b3   Data          20  devfs.o(.constdata)
    __FUNCTION__                             0x080209c7   Data          23  devfs.o(.constdata)
    .constdata                               0x080209de   Section      117  rtc.o(.constdata)
    .constdata                               0x08020a53   Section      134  serial.o(.constdata)
    __FUNCTION__                             0x08020a53   Data          15  serial.o(.constdata)
    __FUNCTION__                             0x08020a62   Data          15  serial.o(.constdata)
    __FUNCTION__                             0x08020a71   Data          16  serial.o(.constdata)
    __FUNCTION__                             0x08020a81   Data          15  serial.o(.constdata)
    __FUNCTION__                             0x08020a90   Data          16  serial.o(.constdata)
    __FUNCTION__                             0x08020aa0   Data          18  serial.o(.constdata)
    __FUNCTION__                             0x08020ab2   Data          22  serial.o(.constdata)
    __FUNCTION__                             0x08020ac8   Data          17  serial.o(.constdata)
    .constdata                               0x08020ad9   Section      163  spi_core.o(.constdata)
    __FUNCTION__                             0x08020ad9   Data          17  spi_core.o(.constdata)
    __FUNCTION__                             0x08020aea   Data          22  spi_core.o(.constdata)
    __FUNCTION__                             0x08020b00   Data          22  spi_core.o(.constdata)
    __FUNCTION__                             0x08020b16   Data          16  spi_core.o(.constdata)
    __FUNCTION__                             0x08020b26   Data          24  spi_core.o(.constdata)
    __FUNCTION__                             0x08020b3e   Data          16  spi_core.o(.constdata)
    __FUNCTION__                             0x08020b4e   Data          19  spi_core.o(.constdata)
    __FUNCTION__                             0x08020b61   Data          12  spi_core.o(.constdata)
    __FUNCTION__                             0x08020b6d   Data          15  spi_core.o(.constdata)
    .constdata                               0x08020b7c   Section      217  spi_dev.o(.constdata)
    __FUNCTION__                             0x08020b7c   Data          21  spi_dev.o(.constdata)
    __FUNCTION__                             0x08020b91   Data          21  spi_dev.o(.constdata)
    __FUNCTION__                             0x08020ba6   Data          22  spi_dev.o(.constdata)
    __FUNCTION__                             0x08020bbc   Data          24  spi_dev.o(.constdata)
    __FUNCTION__                             0x08020bd4   Data          23  spi_dev.o(.constdata)
    __FUNCTION__                             0x08020beb   Data          20  spi_dev.o(.constdata)
    __FUNCTION__                             0x08020bff   Data          20  spi_dev.o(.constdata)
    __FUNCTION__                             0x08020c13   Data          21  spi_dev.o(.constdata)
    __FUNCTION__                             0x08020c28   Data          23  spi_dev.o(.constdata)
    __FUNCTION__                             0x08020c3f   Data          22  spi_dev.o(.constdata)
    .constdata                               0x08020c55   Section      170  dataqueue.o(.constdata)
    __FUNCTION__                             0x08020cb4   Data          19  dataqueue.o(.constdata)
    __FUNCTION__                             0x08020cc7   Data          19  dataqueue.o(.constdata)
    __FUNCTION__                             0x08020cda   Data          18  dataqueue.o(.constdata)
    __FUNCTION__                             0x08020cec   Data          19  dataqueue.o(.constdata)
    .constdata                               0x08020cff   Section      145  pipe.o(.constdata)
    __FUNCTION__                             0x08020d3a   Data          23  pipe.o(.constdata)
    __FUNCTION__                             0x08020d51   Data          13  pipe.o(.constdata)
    __FUNCTION__                             0x08020d5e   Data          23  pipe.o(.constdata)
    __FUNCTION__                             0x08020d75   Data          14  pipe.o(.constdata)
    __FUNCTION__                             0x08020d83   Data          13  pipe.o(.constdata)
    .constdata                               0x08020d90   Section      162  portal.o(.constdata)
    __FUNCTION__                             0x08020dd3   Data          13  portal.o(.constdata)
    __FUNCTION__                             0x08020de0   Data          13  portal.o(.constdata)
    __FUNCTION__                             0x08020ded   Data          14  portal.o(.constdata)
    __FUNCTION__                             0x08020dfb   Data          20  portal.o(.constdata)
    __FUNCTION__                             0x08020e0f   Data          20  portal.o(.constdata)
    __FUNCTION__                             0x08020e23   Data          15  portal.o(.constdata)
    .constdata                               0x08020e32   Section      302  ringbuffer.o(.constdata)
    __FUNCTION__                             0x08020ec9   Data          19  ringbuffer.o(.constdata)
    __FUNCTION__                             0x08020edc   Data          18  ringbuffer.o(.constdata)
    __FUNCTION__                             0x08020eee   Data          24  ringbuffer.o(.constdata)
    __FUNCTION__                             0x08020f06   Data          18  ringbuffer.o(.constdata)
    __FUNCTION__                             0x08020f18   Data          22  ringbuffer.o(.constdata)
    __FUNCTION__                             0x08020f2e   Data          28  ringbuffer.o(.constdata)
    __FUNCTION__                             0x08020f4a   Data          22  ringbuffer.o(.constdata)
    .constdata                               0x08020f60   Section      632  cmd.o(.constdata)
    .constdata                               0x080211d8   Section      196  finsh_ops.o(.constdata)
    .constdata                               0x0802129c   Section       64  finsh_token.o(.constdata)
    finsh_name_table                         0x0802129c   Data          64  finsh_token.o(.constdata)
    .constdata                               0x080212dc   Section       77  shell.o(.constdata)
    __FUNCTION__                             0x080212dc   Data          13  shell.o(.constdata)
    __FUNCTION__                             0x080212e9   Data          17  shell.o(.constdata)
    __FUNCTION__                             0x080212fa   Data          17  shell.o(.constdata)
    __FUNCTION__                             0x0802130b   Data          15  shell.o(.constdata)
    __FUNCTION__                             0x0802131a   Data          15  shell.o(.constdata)
    .constdata                               0x08021329   Section       12  _monlen.o(.constdata)
    .constdata                               0x08021338   Section        8  _printf_wctomb.o(.constdata)
    initial_mbstate                          0x08021338   Data           8  _printf_wctomb.o(.constdata)
    .constdata                               0x08021340   Section       40  _printf_hex_int_ll_ptr.o(.constdata)
    uc_hextab                                0x08021340   Data          20  _printf_hex_int_ll_ptr.o(.constdata)
    lc_hextab                                0x08021354   Data          20  _printf_hex_int_ll_ptr.o(.constdata)
    .constdata                               0x08021368   Section       17  __printf_flags_ss_wp.o(.constdata)
    maptable                                 0x08021368   Data          17  __printf_flags_ss_wp.o(.constdata)
    .constdata                               0x08021379   Section       38  _printf_fp_hex.o(.constdata)
    lc_hextab                                0x08021379   Data          19  _printf_fp_hex.o(.constdata)
    uc_hextab                                0x0802138c   Data          19  _printf_fp_hex.o(.constdata)
    .constdata                               0x080213a0   Section      148  bigflt0.o(.constdata)
    tenpwrs_x                                0x080213a0   Data          60  bigflt0.o(.constdata)
    tenpwrs_i                                0x080213dc   Data          64  bigflt0.o(.constdata)
    .conststring                             0x08021434   Section       24  mnttable.o(.conststring)
    .conststring                             0x0802144c   Section       67  stm32f4xx_dma.o(.conststring)
    .conststring                             0x08021490   Section       68  stm32f4xx_exti.o(.conststring)
    .conststring                             0x080214d4   Section       68  stm32f4xx_gpio.o(.conststring)
    .conststring                             0x08021518   Section       67  stm32f4xx_pwr.o(.conststring)
    .conststring                             0x0802155c   Section       67  stm32f4xx_rcc.o(.conststring)
    .conststring                             0x080215a0   Section       67  stm32f4xx_rtc.o(.conststring)
    .conststring                             0x080215e4   Section       68  stm32f4xx_sdio.o(.conststring)
    .conststring                             0x08021628   Section       67  stm32f4xx_spi.o(.conststring)
    .conststring                             0x0802166c   Section       69  stm32f4xx_usart.o(.conststring)
    .conststring                             0x080216b4   Section      237  mem.o(.conststring)
    .conststring                             0x080217a4   Section        6  devfs.o(.conststring)
    .conststring                             0x080217ac   Section      493  cmd.o(.conststring)
    .conststring                             0x0802199c   Section      243  finsh_error.o(.conststring)
    .conststring                             0x08021a90   Section       62  finsh_token.o(.conststring)
    .rti_fn.0                                0x08021ad0   Section        4  components.o(.rti_fn.0)
    .rti_fn.1                                0x08021ad4   Section        4  platform.o(.rti_fn.1)
    .rti_fn.1                                0x08021ad8   Section        4  usart.o(.rti_fn.1)
    .rti_fn.1.post                           0x08021adc   Section        4  components.o(.rti_fn.1.post)
    .rti_fn.2                                0x08021ae0   Section        4  stm32f4_rtc.o(.rti_fn.2)
    .rti_fn.3                                0x08021ae4   Section        4  module.o(.rti_fn.3)
    .rti_fn.3                                0x08021ae8   Section        4  dfs.o(.rti_fn.3)
    .rti_fn.3                                0x08021aec   Section        4  shell.o(.rti_fn.3)
    .rti_fn.4                                0x08021af0   Section        4  dfs_elm.o(.rti_fn.4)
    .rti_fn.4                                0x08021af4   Section        4  devfs.o(.rti_fn.4)
    .rti_fn.5                                0x08021af8   Section        4  dfs_fs.o(.rti_fn.5)
    .rti_fn.6                                0x08021afc   Section        4  ccfile.o(.rti_fn.6)
    .rti_fn.7                                0x08021b00   Section        4  components.o(.rti_fn.7)
    FSymTab                                  0x08021b04   Section       12  board.o(FSymTab)
    FSymTab                                  0x08021b10   Section       12  mem.o(FSymTab)
    FSymTab                                  0x08021b1c   Section       12  module.o(FSymTab)
    FSymTab                                  0x08021b28   Section       24  dfs_fs.o(FSymTab)
    FSymTab                                  0x08021b40   Section       48  dfs_file.o(FSymTab)
    FSymTab                                  0x08021b70   Section       24  dfs_posix.o(FSymTab)
    FSymTab                                  0x08021b88   Section       36  rtc.o(FSymTab)
    FSymTab                                  0x08021bac   Section      180  cmd.o(FSymTab)
    RTMSymTab                                0x08021c60   Section       16  clock.o(RTMSymTab)
    RTMSymTab                                0x08021c70   Section       80  device.o(RTMSymTab)
    RTMSymTab                                0x08021cc0   Section      304  ipc.o(RTMSymTab)
    RTMSymTab                                0x08021df0   Section       40  irq.o(RTMSymTab)
    RTMSymTab                                0x08021e18   Section      200  kservice.o(RTMSymTab)
    RTMSymTab                                0x08021ee0   Section       32  mem.o(RTMSymTab)
    RTMSymTab                                0x08021f00   Section       40  memheap.o(RTMSymTab)
    RTMSymTab                                0x08021f28   Section       48  mempool.o(RTMSymTab)
    RTMSymTab                                0x08021f58   Section        8  object.o(RTMSymTab)
    RTMSymTab                                0x08021f60   Section      104  thread.o(RTMSymTab)
    RTMSymTab                                0x08021fc8   Section       56  timer.o(RTMSymTab)
    RTMSymTab                                0x08022000   Section      160  dfs_posix.o(RTMSymTab)
    RTMSymTab                                0x080220a0   Section       40  dataqueue.o(RTMSymTab)
    RTMSymTab                                0x080220c8   Section       32  pipe.o(RTMSymTab)
    RTMSymTab                                0x080220e8   Section       32  portal.o(RTMSymTab)
    RTMSymTab                                0x08022108   Section       56  ringbuffer.o(RTMSymTab)
    VSymTab                                  0x08022160   Section       16  cmd.o(VSymTab)
    locale$$data                             0x08022170   Section      272  lc_ctype_c.o(locale$$data)
    __lcctype_c_name                         0x08022174   Data           2  lc_ctype_c.o(locale$$data)
    __lcctype_c_start                        0x0802217c   Data           0  lc_ctype_c.o(locale$$data)
    locale$$data                             0x08022280   Section      384  lc_time_c.o(locale$$data)
    __lcctype_c_end                          0x08022280   Data           0  lc_ctype_c.o(locale$$data)
    __lctime_c_name                          0x08022284   Data           2  lc_time_c.o(locale$$data)
    __lctime_c_start                         0x0802228c   Data           0  lc_time_c.o(locale$$data)
    __lctime_c_week_short                    0x080222c4   Data           0  lc_time_c.o(locale$$data)
    __lctime_c_week_long                     0x080222e0   Data           0  lc_time_c.o(locale$$data)
    __lctime_c_month_short                   0x08022325   Data           0  lc_time_c.o(locale$$data)
    __lctime_c_month_long                    0x08022355   Data           0  lc_time_c.o(locale$$data)
    __lctime_c_am                            0x080223cc   Data           0  lc_time_c.o(locale$$data)
    __lctime_c_pm                            0x080223cf   Data           0  lc_time_c.o(locale$$data)
    __lctime_c_datetime                      0x080223d2   Data           0  lc_time_c.o(locale$$data)
    __lctime_c_date                          0x080223e1   Data           0  lc_time_c.o(locale$$data)
    __lctime_c_time                          0x080223ea   Data           0  lc_time_c.o(locale$$data)
    __lctime_c_12hrtime                      0x080223f3   Data           0  lc_time_c.o(locale$$data)
    locale$$data                             0x08022400   Section       28  lc_numeric_c.o(locale$$data)
    __lctime_c_end                           0x08022400   Data           0  lc_time_c.o(locale$$data)
    __lcnum_c_name                           0x08022404   Data           2  lc_numeric_c.o(locale$$data)
    __lcnum_c_start                          0x0802240c   Data           0  lc_numeric_c.o(locale$$data)
    __lcnum_c_point                          0x08022418   Data           0  lc_numeric_c.o(locale$$data)
    __lcnum_c_thousands                      0x0802241a   Data           0  lc_numeric_c.o(locale$$data)
    __lcnum_c_grouping                       0x0802241b   Data           0  lc_numeric_c.o(locale$$data)
    __lcnum_c_end                            0x0802241c   Data           0  lc_numeric_c.o(locale$$data)
    .data                                    0x20000000   Section       24  platform.o(.data)
    spi_cs                                   0x20000000   Data           8  platform.o(.data)
    spi_cs                                   0x20000008   Data           8  platform.o(.data)
    spi_cs                                   0x20000010   Data           8  platform.o(.data)
    .data                                    0x20000018   Section       12  usart.o(.data)
    inited                                   0x20000020   Data           4  usart.o(.data)
    .data                                    0x20000024   Section       24  sdio_sd.o(.data)
    CardType                                 0x20000024   Data           4  sdio_sd.o(.data)
    RCA                                      0x20000028   Data           4  sdio_sd.o(.data)
    .data                                    0x2000003c   Section        8  stm32f20x_40x_spi.o(.data)
    stm32_spi_ops                            0x2000003c   Data           8  stm32f20x_40x_spi.o(.data)
    .data                                    0x20000044   Section      100  stm32f4_rtc.o(.data)
    .data                                    0x200000a8   Section       20  system_stm32f4xx.o(.data)
    .data                                    0x200000bc   Section       16  stm32f4xx_rcc.o(.data)
    APBAHBPrescTable                         0x200000bc   Data          16  stm32f4xx_rcc.o(.data)
    .data                                    0x200000cc   Section        4  clock.o(.data)
    rt_tick                                  0x200000cc   Data           4  clock.o(.data)
    .data                                    0x200000d0   Section        4  idle.o(.data)
    rt_thread_idle_hook                      0x200000d0   Data           4  idle.o(.data)
    .data                                    0x200000d4   Section        1  irq.o(.data)
    .data                                    0x200000d8   Section        8  kservice.o(.data)
    _errno                                   0x200000d8   Data           4  kservice.o(.data)
    _console_device                          0x200000dc   Data           4  kservice.o(.data)
    .data                                    0x200000e0   Section       32  mem.o(.data)
    rt_malloc_hook                           0x200000e0   Data           4  mem.o(.data)
    rt_free_hook                             0x200000e4   Data           4  mem.o(.data)
    heap_ptr                                 0x200000e8   Data           4  mem.o(.data)
    heap_end                                 0x200000ec   Data           4  mem.o(.data)
    lfree                                    0x200000f0   Data           4  mem.o(.data)
    mem_size_aligned                         0x200000f4   Data           4  mem.o(.data)
    used_mem                                 0x200000f8   Data           4  mem.o(.data)
    max_mem                                  0x200000fc   Data           4  mem.o(.data)
    .data                                    0x20000100   Section        8  mempool.o(.data)
    rt_mp_alloc_hook                         0x20000100   Data           4  mempool.o(.data)
    rt_mp_free_hook                          0x20000104   Data           4  mempool.o(.data)
    .data                                    0x20000108   Section       20  module.o(.data)
    _rt_module_symtab_begin                  0x20000108   Data           4  module.o(.data)
    _rt_module_symtab_end                    0x2000010c   Data           4  module.o(.data)
    rt_module_load_hook                      0x20000110   Data           4  module.o(.data)
    rt_module_unload_hook                    0x20000114   Data           4  module.o(.data)
    unsolved                                 0x20000118   Data           4  module.o(.data)
    .data                                    0x2000011c   Section      196  object.o(.data)
    rt_object_attach_hook                    0x200001cc   Data           4  object.o(.data)
    rt_object_detach_hook                    0x200001d0   Data           4  object.o(.data)
    .data                                    0x200001e0   Section       28  scheduler.o(.data)
    rt_scheduler_lock_nest                   0x200001e0   Data           2  scheduler.o(.data)
    rt_scheduler_hook                        0x200001f8   Data           4  scheduler.o(.data)
    .data                                    0x200001fc   Section       12  timer.o(.data)
    rt_timer_list                            0x200001fc   Data           8  timer.o(.data)
    rt_timer_timeout_hook                    0x20000204   Data           4  timer.o(.data)
    .data                                    0x20000208   Section       16  cpuport.o(.data)
    rt_exception_hook                        0x20000214   Data           4  cpuport.o(.data)
    .data                                    0x20000218   Section      256  dfs.o(.data)
    .data                                    0x20000318   Section        8  dfs_elm.o(.data)
    disk                                     0x20000318   Data           8  dfs_elm.o(.data)
    .data                                    0x20000320   Section       10  ff.o(.data)
    FatFs                                    0x20000320   Data           8  ff.o(.data)
    Fsid                                     0x20000328   Data           2  ff.o(.data)
    .data                                    0x2000032c   Section        8  ccfile.o(.data)
    gbk2uni_fd                               0x2000032c   Data           4  ccfile.o(.data)
    uni2gbk_fd                               0x20000330   Data           4  ccfile.o(.data)
    .data                                    0x20000334   Section        4  rtc.o(.data)
    device                                   0x20000334   Data           4  rtc.o(.data)
    .data                                    0x20000338   Section        4  cmd.o(.data)
    dummy                                    0x20000338   Data           4  cmd.o(.data)
    .data                                    0x2000033c   Section        8  finsh_compiler.o(.data)
    .data                                    0x20000344   Section       64  finsh_error.o(.data)
    finsh_error_string_table                 0x20000348   Data          60  finsh_error.o(.data)
    .data                                    0x20000384   Section        8  finsh_heap.o(.data)
    free_list                                0x20000384   Data           4  finsh_heap.o(.data)
    allocate_list                            0x20000388   Data           4  finsh_heap.o(.data)
    .data                                    0x2000038c   Section        4  finsh_var.o(.data)
    .data                                    0x20000390   Section       12  finsh_vm.o(.data)
    .data                                    0x2000039c   Section      133  shell.o(.data)
    finsh_prompt                             0x200003a0   Data         129  shell.o(.data)
    .data                                    0x20000424   Section       16  symbol.o(.data)
    .bss                                     0x20000434   Section      360  platform.o(.bss)
    stm32_spi                                0x20000434   Data         120  platform.o(.bss)
    spi_device                               0x200004ac   Data          80  platform.o(.bss)
    spi_device                               0x200004fc   Data          80  platform.o(.bss)
    spi_device                               0x2000054c   Data          80  platform.o(.bss)
    .bss                                     0x2000059c   Section      196  usart.o(.bss)
    .bss                                     0x20000660   Section     1340  sdio_sd.o(.bss)
    CSD_Tab                                  0x20000660   Data          16  sdio_sd.o(.bss)
    CID_Tab                                  0x20000670   Data          16  sdio_sd.o(.bss)
    SDSTATUS_Tab                             0x20000680   Data          16  sdio_sd.o(.bss)
    SDCardInfo                               0x20000690   Data          80  sdio_sd.o(.bss)
    sdcard_device                            0x20000724   Data          68  sdio_sd.o(.bss)
    part                                     0x20000768   Data          16  sdio_sd.o(.bss)
    sd_lock                                  0x20000778   Data          36  sdio_sd.o(.bss)
    _sdcard_buffer                           0x2000079c   Data         512  sdio_sd.o(.bss)
    dma_buffer                               0x2000099c   Data         512  sdio_sd.o(.bss)
    .bss                                     0x20000b9c   Section      124  spi_flash_w25qxx.o(.bss)
    spi_flash_device                         0x20000b9c   Data         124  spi_flash_w25qxx.o(.bss)
    .bss                                     0x20000c18   Section       68  stm32f4_rtc.o(.bss)
    rtc                                      0x20000c18   Data          68  stm32f4_rtc.o(.bss)
    .bss                                     0x20000c5c   Section      648  idle.o(.bss)
    idle                                     0x20000c5c   Data         136  idle.o(.bss)
    rt_thread_stack                          0x20000ce4   Data         512  idle.o(.bss)
    .bss                                     0x20000ee4   Section      128  kservice.o(.bss)
    rt_log_buf                               0x20000ee4   Data         128  kservice.o(.bss)
    .bss                                     0x20000f64   Section       36  mem.o(.bss)
    heap_sem                                 0x20000f64   Data          36  mem.o(.bss)
    .bss                                     0x20000f88   Section      256  scheduler.o(.bss)
    .bss                                     0x20001088   Section      600  dfs.o(.bss)
    fslock                                   0x200010b8   Data          40  dfs.o(.bss)
    .bss                                     0x200012e0   Section      292  dfs_file.o(.bss)
    fd                                       0x200012e0   Data          32  dfs_file.o(.bss)
    dirent                                   0x20001300   Data         260  dfs_file.o(.bss)
    .bss                                     0x20001404   Section      128  finsh_heap.o(.bss)
    .bss                                     0x20001484   Section      320  finsh_node.o(.bss)
    .bss                                     0x200015c4   Section      192  finsh_var.o(.bss)
    .bss                                     0x20001684   Section      384  finsh_vm.o(.bss)
    .bss                                     0x20001804   Section     4232  shell.o(.bss)
    finsh_thread                             0x20001804   Data         136  shell.o(.bss)
    finsh_thread_stack                       0x2000188c   Data        4096  shell.o(.bss)
    .bss                                     0x2000288c   Section       44  localtime.o(.bss)
    _tms                                     0x2000288c   Data          44  localtime.o(.bss)
    .bss                                     0x200028b8   Section       68  asctime.o(.bss)
    _timebuf                                 0x200028b8   Data          68  asctime.o(.bss)
    .bss                                     0x200028fc   Section       96  libspace.o(.bss)
    HEAP                                     0x20002960   Section      512  startup_stm32f4xx.o(HEAP)
    Heap_Mem                                 0x20002960   Data         512  startup_stm32f4xx.o(HEAP)
    STACK                                    0x20002b60   Section     1024  startup_stm32f4xx.o(STACK)
    Stack_Mem                                0x20002b60   Data        1024  startup_stm32f4xx.o(STACK)
    __initial_sp                             0x20002f60   Data           0  startup_stm32f4xx.o(STACK)

    Global Symbols

    Symbol Name                              Value     Ov Type        Size  Object(Section)

    BuildAttributes$$THM_ISAv4$E$P$D$K$B$S$7EM$VFPi3$EXTD16$VFPS$VFMA$PE$A:L22UL41UL21$X:L11$S22US41US21$IEEE1$IW$USESV6$~STKCKD$USESV7$~SHL$OTIME$ROPI$IEEEJ$EBA8$UX$STANDARDLIB$REQ8$PRES8$EABIv2 0x00000000   Number         0  anon$$obj.o ABSOLUTE
    __ARM_use_no_argv                        0x00000000   Number         0  startup.o ABSOLUTE
    _printf_flags                            0x00000000   Number         0  printf_stubs.o ABSOLUTE
    _printf_return_value                     0x00000000   Number         0  printf_stubs.o ABSOLUTE
    _printf_sizespec                         0x00000000   Number         0  printf_stubs.o ABSOLUTE
    _printf_widthprec                        0x00000000   Number         0  printf_stubs.o ABSOLUTE
    __ARM_exceptions_init                     - Undefined Weak Reference
    __alloca_initialize                       - Undefined Weak Reference
    __arm_preinit_                            - Undefined Weak Reference
    __cpp_initialize__aeabi_                  - Undefined Weak Reference
    __cxa_finalize                            - Undefined Weak Reference
    __sigvec_lookup                           - Undefined Weak Reference
    _atexit_init                              - Undefined Weak Reference
    _call_atexit_fns                          - Undefined Weak Reference
    _clock_init                               - Undefined Weak Reference
    _fp_trap_init                             - Undefined Weak Reference
    _fp_trap_shutdown                         - Undefined Weak Reference
    _get_lc_collate                           - Undefined Weak Reference
    _get_lc_monetary                          - Undefined Weak Reference
    _getenv_init                              - Undefined Weak Reference
    _handle_redirection                       - Undefined Weak Reference
    _init_alloc                               - Undefined Weak Reference
    _init_user_alloc                          - Undefined Weak Reference
    _initio                                   - Undefined Weak Reference
    _printf_mbtowc                            - Undefined Weak Reference
    _printf_wc                                - Undefined Weak Reference
    _rand_init                                - Undefined Weak Reference
    _signal_finish                            - Undefined Weak Reference
    _signal_init                              - Undefined Weak Reference
    _terminate_alloc                          - Undefined Weak Reference
    _terminate_user_alloc                     - Undefined Weak Reference
    _terminateio                              - Undefined Weak Reference
    __Vectors_Size                           0x00000188   Number         0  startup_stm32f4xx.o ABSOLUTE
    __Vectors                                0x08000000   Data           4  startup_stm32f4xx.o(RESET)
    __Vectors_End                            0x08000188   Data           0  startup_stm32f4xx.o(RESET)
    __main                                   0x08000189   Thumb Code     8  __main.o(!!!main)
    __scatterload                            0x08000191   Thumb Code     0  __scatter.o(!!!scatter)
    __scatterload_rt2                        0x08000191   Thumb Code    44  __scatter.o(!!!scatter)
    __scatterload_rt2_thumb_only             0x08000191   Thumb Code     0  __scatter.o(!!!scatter)
    __scatterload_null                       0x0800019f   Thumb Code     0  __scatter.o(!!!scatter)
    __decompress                             0x080001c5   Thumb Code    90  __dczerorl2.o(!!dczerorl2)
    __decompress1                            0x080001c5   Thumb Code     0  __dczerorl2.o(!!dczerorl2)
    __scatterload_zeroinit                   0x08000221   Thumb Code    28  __scatter_zi.o(!!handler_zi)
    _printf_n                                0x0800023d   Thumb Code     0  _printf_n.o(.ARM.Collect$$_printf_percent$$00000001)
    _printf_percent                          0x0800023d   Thumb Code     0  _printf_percent.o(.ARM.Collect$$_printf_percent$$00000000)
    _printf_p                                0x08000243   Thumb Code     0  _printf_p.o(.ARM.Collect$$_printf_percent$$00000002)
    _printf_f                                0x08000249   Thumb Code     0  _printf_f.o(.ARM.Collect$$_printf_percent$$00000003)
    _printf_e                                0x0800024f   Thumb Code     0  _printf_e.o(.ARM.Collect$$_printf_percent$$00000004)
    _printf_g                                0x08000255   Thumb Code     0  _printf_g.o(.ARM.Collect$$_printf_percent$$00000005)
    _printf_a                                0x0800025b   Thumb Code     0  _printf_a.o(.ARM.Collect$$_printf_percent$$00000006)
    _printf_ll                               0x08000261   Thumb Code     0  _printf_ll.o(.ARM.Collect$$_printf_percent$$00000007)
    _printf_i                                0x0800026b   Thumb Code     0  _printf_i.o(.ARM.Collect$$_printf_percent$$00000008)
    _printf_d                                0x08000271   Thumb Code     0  _printf_d.o(.ARM.Collect$$_printf_percent$$00000009)
    _printf_u                                0x08000277   Thumb Code     0  _printf_u.o(.ARM.Collect$$_printf_percent$$0000000A)
    _printf_o                                0x0800027d   Thumb Code     0  _printf_o.o(.ARM.Collect$$_printf_percent$$0000000B)
    _printf_x                                0x08000283   Thumb Code     0  _printf_x.o(.ARM.Collect$$_printf_percent$$0000000C)
    _printf_lli                              0x08000289   Thumb Code     0  _printf_lli.o(.ARM.Collect$$_printf_percent$$0000000D)
    _printf_lld                              0x0800028f   Thumb Code     0  _printf_lld.o(.ARM.Collect$$_printf_percent$$0000000E)
    _printf_llu                              0x08000295   Thumb Code     0  _printf_llu.o(.ARM.Collect$$_printf_percent$$0000000F)
    _printf_llo                              0x0800029b   Thumb Code     0  _printf_llo.o(.ARM.Collect$$_printf_percent$$00000010)
    _printf_llx                              0x080002a1   Thumb Code     0  _printf_llx.o(.ARM.Collect$$_printf_percent$$00000011)
    _printf_l                                0x080002a7   Thumb Code     0  _printf_l.o(.ARM.Collect$$_printf_percent$$00000012)
    _printf_c                                0x080002b1   Thumb Code     0  _printf_c.o(.ARM.Collect$$_printf_percent$$00000013)
    _printf_s                                0x080002b7   Thumb Code     0  _printf_s.o(.ARM.Collect$$_printf_percent$$00000014)
    _printf_lc                               0x080002bd   Thumb Code     0  _printf_lc.o(.ARM.Collect$$_printf_percent$$00000015)
    _printf_ls                               0x080002c3   Thumb Code     0  _printf_ls.o(.ARM.Collect$$_printf_percent$$00000016)
    _printf_percent_end                      0x080002c9   Thumb Code     0  _printf_percent_end.o(.ARM.Collect$$_printf_percent$$00000017)
    __rt_lib_init                            0x080002cd   Thumb Code     0  libinit.o(.ARM.Collect$$libinit$$00000000)
    __rt_lib_init_fp_1                       0x080002cf   Thumb Code     0  libinit2.o(.ARM.Collect$$libinit$$00000001)
    __rt_lib_init_heap_1                     0x080002d3   Thumb Code     0  libinit2.o(.ARM.Collect$$libinit$$0000000A)
    __rt_lib_init_lc_common                  0x080002d3   Thumb Code     0  libinit2.o(.ARM.Collect$$libinit$$0000000F)
    __rt_lib_init_preinit_1                  0x080002d3   Thumb Code     0  libinit2.o(.ARM.Collect$$libinit$$00000004)
    __rt_lib_init_rand_1                     0x080002d3   Thumb Code     0  libinit2.o(.ARM.Collect$$libinit$$0000000E)
    __rt_lib_init_user_alloc_1               0x080002d3   Thumb Code     0  libinit2.o(.ARM.Collect$$libinit$$0000000C)
    __rt_lib_init_lc_collate_1               0x080002d9   Thumb Code     0  libinit2.o(.ARM.Collect$$libinit$$00000011)
    __rt_lib_init_lc_ctype_2                 0x080002d9   Thumb Code     0  libinit2.o(.ARM.Collect$$libinit$$00000012)
    __rt_lib_init_lc_ctype_1                 0x080002e5   Thumb Code     0  libinit2.o(.ARM.Collect$$libinit$$00000013)
    __rt_lib_init_lc_monetary_1              0x080002e5   Thumb Code     0  libinit2.o(.ARM.Collect$$libinit$$00000015)
    __rt_lib_init_lc_numeric_2               0x080002e5   Thumb Code     0  libinit2.o(.ARM.Collect$$libinit$$00000016)
    __rt_lib_init_lc_numeric_1               0x080002ef   Thumb Code     0  libinit2.o(.ARM.Collect$$libinit$$00000017)
    __rt_lib_init_lc_time_2                  0x080002ef   Thumb Code     0  libinit2.o(.ARM.Collect$$libinit$$00000018)
    __rt_lib_init_alloca_1                   0x080002f9   Thumb Code     0  libinit2.o(.ARM.Collect$$libinit$$0000002E)
    __rt_lib_init_argv_1                     0x080002f9   Thumb Code     0  libinit2.o(.ARM.Collect$$libinit$$0000002C)
    __rt_lib_init_atexit_1                   0x080002f9   Thumb Code     0  libinit2.o(.ARM.Collect$$libinit$$0000001B)
    __rt_lib_init_clock_1                    0x080002f9   Thumb Code     0  libinit2.o(.ARM.Collect$$libinit$$00000021)
    __rt_lib_init_cpp_1                      0x080002f9   Thumb Code     0  libinit2.o(.ARM.Collect$$libinit$$00000032)
    __rt_lib_init_exceptions_1               0x080002f9   Thumb Code     0  libinit2.o(.ARM.Collect$$libinit$$00000030)
    __rt_lib_init_fp_trap_1                  0x080002f9   Thumb Code     0  libinit2.o(.ARM.Collect$$libinit$$0000001F)
    __rt_lib_init_getenv_1                   0x080002f9   Thumb Code     0  libinit2.o(.ARM.Collect$$libinit$$00000023)
    __rt_lib_init_lc_time_1                  0x080002f9   Thumb Code     0  libinit2.o(.ARM.Collect$$libinit$$00000019)
    __rt_lib_init_return                     0x080002f9   Thumb Code     0  libinit2.o(.ARM.Collect$$libinit$$00000033)
    __rt_lib_init_signal_1                   0x080002f9   Thumb Code     0  libinit2.o(.ARM.Collect$$libinit$$0000001D)
    __rt_lib_init_stdio_1                    0x080002f9   Thumb Code     0  libinit2.o(.ARM.Collect$$libinit$$00000025)
    __rt_lib_shutdown                        0x080002fb   Thumb Code     0  libshutdown.o(.ARM.Collect$$libshutdown$$00000000)
    __rt_lib_shutdown_cpp_1                  0x080002fd   Thumb Code     0  libshutdown2.o(.ARM.Collect$$libshutdown$$00000002)
    __rt_lib_shutdown_fp_trap_1              0x080002fd   Thumb Code     0  libshutdown2.o(.ARM.Collect$$libshutdown$$00000007)
    __rt_lib_shutdown_heap_1                 0x080002fd   Thumb Code     0  libshutdown2.o(.ARM.Collect$$libshutdown$$0000000F)
    __rt_lib_shutdown_return                 0x080002fd   Thumb Code     0  libshutdown2.o(.ARM.Collect$$libshutdown$$00000010)
    __rt_lib_shutdown_signal_1               0x080002fd   Thumb Code     0  libshutdown2.o(.ARM.Collect$$libshutdown$$0000000A)
    __rt_lib_shutdown_stdio_1                0x080002fd   Thumb Code     0  libshutdown2.o(.ARM.Collect$$libshutdown$$00000004)
    __rt_lib_shutdown_user_alloc_1           0x080002fd   Thumb Code     0  libshutdown2.o(.ARM.Collect$$libshutdown$$0000000C)
    __rt_entry                               0x080002ff   Thumb Code     0  __rtentry.o(.ARM.Collect$$rtentry$$00000000)
    __rt_entry_presh_1                       0x080002ff   Thumb Code     0  __rtentry2.o(.ARM.Collect$$rtentry$$00000002)
    __rt_entry_sh                            0x080002ff   Thumb Code     0  __rtentry4.o(.ARM.Collect$$rtentry$$00000004)
    __rt_entry_li                            0x08000305   Thumb Code     0  __rtentry2.o(.ARM.Collect$$rtentry$$0000000A)
    __rt_entry_postsh_1                      0x08000305   Thumb Code     0  __rtentry2.o(.ARM.Collect$$rtentry$$00000009)
    __rt_entry_main                          0x08000309   Thumb Code     0  __rtentry2.o(.ARM.Collect$$rtentry$$0000000D)
    __rt_entry_postli_1                      0x08000309   Thumb Code     0  __rtentry2.o(.ARM.Collect$$rtentry$$0000000C)
    __rt_exit                                0x08000311   Thumb Code     0  rtexit.o(.ARM.Collect$$rtexit$$00000000)
    __rt_exit_ls                             0x08000313   Thumb Code     0  rtexit2.o(.ARM.Collect$$rtexit$$00000003)
    __rt_exit_prels_1                        0x08000313   Thumb Code     0  rtexit2.o(.ARM.Collect$$rtexit$$00000002)
    __rt_exit_exit                           0x08000317   Thumb Code     0  rtexit2.o(.ARM.Collect$$rtexit$$00000004)
    rt_init_thread_entry                     0x0800031d   Thumb Code    14  application.o(.text)
    rt_application_init                      0x0800032b   Thumb Code    40  application.o(.text)
    assert_failed                            0x0800035d   Thumb Code    30  startup.o(.text)
    rtthread_startup                         0x0800037b   Thumb Code    40  startup.o(.text)
    main                                     0x080003a3   Thumb Code    14  startup.o(.text)
    NVIC_Configuration                       0x08000409   Thumb Code    22  board.o(.text)
    SysTick_Handler                          0x0800041f   Thumb Code    16  board.o(.text)
    rt_hw_tick_get_millisecond               0x0800042f   Thumb Code    50  board.o(.text)
    rt_hw_tick_get_microsecond               0x08000461   Thumb Code    52  board.o(.text)
    fsmc_gpio_init                           0x08000495   Thumb Code   538  board.o(.text)
    rt_hw_board_init                         0x080006f9   Thumb Code   104  board.o(.text)
    rt_platform_init                         0x08000901   Thumb Code    26  platform.o(.text)
    USART3_IRQHandler                        0x08000b15   Thumb Code    64  usart.o(.text)
    rt_hw_usart_init                         0x08000bd1   Thumb Code   104  usart.o(.text)
    rt_hw_console_output                     0x08000cb9   Thumb Code    66  usart.o(.text)
    NMI_Handler                              0x08000d7d   Thumb Code     2  stm32f4xx_it.o(.text)
    MemManage_Handler                        0x08000d7f   Thumb Code     4  stm32f4xx_it.o(.text)
    BusFault_Handler                         0x08000d83   Thumb Code     4  stm32f4xx_it.o(.text)
    UsageFault_Handler                       0x08000d87   Thumb Code     4  stm32f4xx_it.o(.text)
    SVC_Handler                              0x08000d8b   Thumb Code     2  stm32f4xx_it.o(.text)
    DebugMon_Handler                         0x08000d8d   Thumb Code     2  stm32f4xx_it.o(.text)
    USART1_IRQHandler                        0x08000d8f   Thumb Code     2  stm32f4xx_it.o(.text)
    USART2_IRQHandler                        0x08000d91   Thumb Code     2  stm32f4xx_it.o(.text)
    key_handler                              0x08000d93   Thumb Code     2  stm32f4xx_it.o(.text)
    EXTI9_5_IRQHandler                       0x08000d95   Thumb Code   102  stm32f4xx_it.o(.text)
    SD_LowLevel_DeInit                       0x08000dfd   Thumb Code   140  sdio_sd.o(.text)
    SD_LowLevel_Init                         0x08000e89   Thumb Code   184  sdio_sd.o(.text)
    SD_LowLevel_DMA_TxConfig                 0x08000f41   Thumb Code   126  sdio_sd.o(.text)
    SD_LowLevel_DMA_RxConfig                 0x08000fbf   Thumb Code   126  sdio_sd.o(.text)
    SD_DMAEndOfTransferStatus                0x0800103d   Thumb Code    14  sdio_sd.o(.text)
    SD_DeInit                                0x0800104b   Thumb Code     8  sdio_sd.o(.text)
    SD_EnableWideBusOperation                0x0800143b   Thumb Code   136  sdio_sd.o(.text)
    SD_SelectDeselect                        0x080014c3   Thumb Code    48  sdio_sd.o(.text)
    SD_GetCardInfo                           0x080014f3   Thumb Code   728  sdio_sd.o(.text)
    SD_InitializeCards                       0x080018a9   Thumb Code   294  sdio_sd.o(.text)
    SD_PowerON                               0x08001a77   Thumb Code   430  sdio_sd.o(.text)
    SD_Init                                  0x08001c25   Thumb Code   122  sdio_sd.o(.text)
    SD_SendStatus                            0x08001c9f   Thumb Code    74  sdio_sd.o(.text)
    SD_Detect                                0x08001ce9   Thumb Code    26  sdio_sd.o(.text)
    SD_GetState                              0x08001d03   Thumb Code    38  sdio_sd.o(.text)
    SD_GetStatus                             0x08001d29   Thumb Code    30  sdio_sd.o(.text)
    SD_PowerOFF                              0x08001d47   Thumb Code    14  sdio_sd.o(.text)
    SD_SendSDStatus                          0x08001d55   Thumb Code   404  sdio_sd.o(.text)
    SD_GetCardStatus                         0x08001ee9   Thumb Code   156  sdio_sd.o(.text)
    SD_ReadBlock                             0x08001f85   Thumb Code   194  sdio_sd.o(.text)
    SD_ReadMultiBlocks                       0x08002047   Thumb Code   204  sdio_sd.o(.text)
    SD_StopTransfer                          0x08002113   Thumb Code    46  sdio_sd.o(.text)
    SD_WaitReadOperation                     0x08002141   Thumb Code   104  sdio_sd.o(.text)
    SD_WriteBlock                            0x080021a9   Thumb Code   192  sdio_sd.o(.text)
    SD_WriteMultiBlocks                      0x08002269   Thumb Code   336  sdio_sd.o(.text)
    SD_WaitWriteOperation                    0x080023b9   Thumb Code   102  sdio_sd.o(.text)
    SD_GetTransferState                      0x0800241f   Thumb Code    18  sdio_sd.o(.text)
    SD_Erase                                 0x080025bd   Thumb Code   300  sdio_sd.o(.text)
    SD_ProcessIRQSrc                         0x080026e9   Thumb Code   212  sdio_sd.o(.text)
    SD_ProcessDMAIRQ                         0x080027bd   Thumb Code    32  sdio_sd.o(.text)
    convert_from_bytes_to_power_of_two       0x080027dd   Thumb Code    18  sdio_sd.o(.text)
    rt_hw_sdcard_init                        0x08002a0d   Thumb Code   102  sdio_sd.o(.text)
    SDIO_IRQHandler                          0x08002a73   Thumb Code    26  sdio_sd.o(.text)
    DMA2_Stream3_IRQHandler                  0x08002a8d   Thumb Code     8  sdio_sd.o(.text)
    stm32_spi_register                       0x08002dd9   Thumb Code    78  stm32f20x_40x_spi.o(.text)
    w25qxx_page_write                        0x08002ee1   Thumb Code   210  spi_flash_w25qxx.o(.text)
    w25qxx_init                              0x080030bb   Thumb Code   886  spi_flash_w25qxx.o(.text)
    rt_hw_rtc_init                           0x080036d1   Thumb Code   118  stm32f4_rtc.o(.text)
    SystemInit                               0x08003959   Thumb Code    88  system_stm32f4xx.o(.text)
    SystemCoreClockUpdate                    0x080039b1   Thumb Code   174  system_stm32f4xx.o(.text)
    NVIC_PriorityGroupConfig                 0x08003a8d   Thumb Code    54  misc.o(.text)
    NVIC_Init                                0x08003ac3   Thumb Code   164  misc.o(.text)
    NVIC_SetVectorTable                      0x08003b67   Thumb Code    60  misc.o(.text)
    NVIC_SystemLPConfig                      0x08003ba3   Thumb Code    78  misc.o(.text)
    SysTick_CLKSourceConfig                  0x08003bf1   Thumb Code    62  misc.o(.text)
    DMA_DeInit                               0x08003c85   Thumb Code   462  stm32f4xx_dma.o(.text)
    DMA_Init                                 0x08003e53   Thumb Code   684  stm32f4xx_dma.o(.text)
    DMA_StructInit                           0x080040ff   Thumb Code    34  stm32f4xx_dma.o(.text)
    DMA_Cmd                                  0x08004121   Thumb Code   182  stm32f4xx_dma.o(.text)
    DMA_PeriphIncOffsetSizeConfig            0x080041d7   Thumb Code   184  stm32f4xx_dma.o(.text)
    DMA_FlowControllerConfig                 0x0800428f   Thumb Code   182  stm32f4xx_dma.o(.text)
    DMA_SetCurrDataCounter                   0x08004345   Thumb Code   146  stm32f4xx_dma.o(.text)
    DMA_GetCurrDataCounter                   0x080043d7   Thumb Code   146  stm32f4xx_dma.o(.text)
    DMA_DoubleBufferModeConfig               0x08004469   Thumb Code   204  stm32f4xx_dma.o(.text)
    DMA_DoubleBufferModeCmd                  0x08004535   Thumb Code   182  stm32f4xx_dma.o(.text)
    DMA_MemoryTargetConfig                   0x080045eb   Thumb Code   174  stm32f4xx_dma.o(.text)
    DMA_GetCurrentMemoryTarget               0x08004699   Thumb Code   160  stm32f4xx_dma.o(.text)
    DMA_GetCmdStatus                         0x08004739   Thumb Code   160  stm32f4xx_dma.o(.text)
    DMA_GetFIFOStatus                        0x080047d9   Thumb Code   152  stm32f4xx_dma.o(.text)
    DMA_GetFlagStatus                        0x08004871   Thumb Code   486  stm32f4xx_dma.o(.text)
    DMA_ClearFlag                            0x08004a57   Thumb Code   216  stm32f4xx_dma.o(.text)
    DMA_ITConfig                             0x08004b2f   Thumb Code   238  stm32f4xx_dma.o(.text)
    DMA_GetITStatus                          0x08004c1d   Thumb Code   590  stm32f4xx_dma.o(.text)
    DMA_ClearITPendingBit                    0x08004e6b   Thumb Code   216  stm32f4xx_dma.o(.text)
    EXTI_DeInit                              0x08004fed   Thumb Code    28  stm32f4xx_exti.o(.text)
    EXTI_Init                                0x08005009   Thumb Code   236  stm32f4xx_exti.o(.text)
    EXTI_StructInit                          0x080050f5   Thumb Code    16  stm32f4xx_exti.o(.text)
    EXTI_GenerateSWInterrupt                 0x08005105   Thumb Code    38  stm32f4xx_exti.o(.text)
    EXTI_GetFlagStatus                       0x0800512b   Thumb Code   158  stm32f4xx_exti.o(.text)
    EXTI_ClearFlag                           0x080051c9   Thumb Code    30  stm32f4xx_exti.o(.text)
    EXTI_GetITStatus                         0x080051e7   Thumb Code   172  stm32f4xx_exti.o(.text)
    EXTI_ClearITPendingBit                   0x08005293   Thumb Code    32  stm32f4xx_exti.o(.text)
    GPIO_DeInit                              0x080052c1   Thumb Code   284  stm32f4xx_gpio.o(.text)
    GPIO_Init                                0x080053dd   Thumb Code   342  stm32f4xx_gpio.o(.text)
    GPIO_StructInit                          0x08005533   Thumb Code    18  stm32f4xx_gpio.o(.text)
    GPIO_PinLockConfig                       0x08005545   Thumb Code   122  stm32f4xx_gpio.o(.text)
    GPIO_ReadInputDataBit                    0x080055bf   Thumb Code   182  stm32f4xx_gpio.o(.text)
    GPIO_ReadInputData                       0x08005675   Thumb Code   116  stm32f4xx_gpio.o(.text)
    GPIO_ReadOutputDataBit                   0x080056e9   Thumb Code   182  stm32f4xx_gpio.o(.text)
    GPIO_ReadOutputData                      0x0800579f   Thumb Code    76  stm32f4xx_gpio.o(.text)
    GPIO_SetBits                             0x080057eb   Thumb Code    94  stm32f4xx_gpio.o(.text)
    GPIO_ResetBits                           0x08005849   Thumb Code    94  stm32f4xx_gpio.o(.text)
    GPIO_WriteBit                            0x080058a7   Thumb Code   194  stm32f4xx_gpio.o(.text)
    GPIO_Write                               0x08005969   Thumb Code    76  stm32f4xx_gpio.o(.text)
    GPIO_ToggleBits                          0x080059b5   Thumb Code    80  stm32f4xx_gpio.o(.text)
    GPIO_PinAFConfig                         0x08005a05   Thumb Code   382  stm32f4xx_gpio.o(.text)
    PWR_DeInit                               0x08005b89   Thumb Code    22  stm32f4xx_pwr.o(.text)
    PWR_BackupAccessCmd                      0x08005b9f   Thumb Code    26  stm32f4xx_pwr.o(.text)
    PWR_PVDLevelConfig                       0x08005bb9   Thumb Code    60  stm32f4xx_pwr.o(.text)
    PWR_PVDCmd                               0x08005bf5   Thumb Code    26  stm32f4xx_pwr.o(.text)
    PWR_WakeUpPinCmd                         0x08005c0f   Thumb Code    28  stm32f4xx_pwr.o(.text)
    PWR_BackupRegulatorCmd                   0x08005c2b   Thumb Code    30  stm32f4xx_pwr.o(.text)
    PWR_MainRegulatorModeConfig              0x08005c49   Thumb Code    54  stm32f4xx_pwr.o(.text)
    PWR_FlashPowerDownCmd                    0x08005c7f   Thumb Code    28  stm32f4xx_pwr.o(.text)
    PWR_EnterSTOPMode                        0x08005c9b   Thumb Code    94  stm32f4xx_pwr.o(.text)
    PWR_EnterSTANDBYMode                     0x08005cf9   Thumb Code    42  stm32f4xx_pwr.o(.text)
    PWR_GetFlagStatus                        0x08005d23   Thumb Code    58  stm32f4xx_pwr.o(.text)
    PWR_ClearFlag                            0x08005d5d   Thumb Code    38  stm32f4xx_pwr.o(.text)
    RCC_DeInit                               0x08005d95   Thumb Code    60  stm32f4xx_rcc.o(.text)
    RCC_HSEConfig                            0x08005dd1   Thumb Code    38  stm32f4xx_rcc.o(.text)
    RCC_GetFlagStatus                        0x08005df7   Thumb Code   130  stm32f4xx_rcc.o(.text)
    RCC_WaitForHSEStartUp                    0x08005e79   Thumb Code    56  stm32f4xx_rcc.o(.text)
    RCC_AdjustHSICalibrationValue            0x08005eb1   Thumb Code    38  stm32f4xx_rcc.o(.text)
    RCC_HSICmd                               0x08005ed7   Thumb Code    28  stm32f4xx_rcc.o(.text)
    RCC_LSEConfig                            0x08005ef3   Thumb Code    72  stm32f4xx_rcc.o(.text)
    RCC_LSICmd                               0x08005f3b   Thumb Code    28  stm32f4xx_rcc.o(.text)
    RCC_PLLConfig                            0x08005f57   Thumb Code   156  stm32f4xx_rcc.o(.text)
    RCC_PLLCmd                               0x08005ff3   Thumb Code    28  stm32f4xx_rcc.o(.text)
    RCC_PLLI2SConfig                         0x0800600f   Thumb Code    62  stm32f4xx_rcc.o(.text)
    RCC_PLLI2SCmd                            0x0800604d   Thumb Code    28  stm32f4xx_rcc.o(.text)
    RCC_ClockSecuritySystemCmd               0x08006069   Thumb Code    28  stm32f4xx_rcc.o(.text)
    RCC_MCO1Config                           0x08006085   Thumb Code   102  stm32f4xx_rcc.o(.text)
    RCC_MCO2Config                           0x080060eb   Thumb Code   102  stm32f4xx_rcc.o(.text)
    RCC_SYSCLKConfig                         0x08006151   Thumb Code    68  stm32f4xx_rcc.o(.text)
    RCC_GetSYSCLKSource                      0x08006195   Thumb Code    10  stm32f4xx_rcc.o(.text)
    RCC_HCLKConfig                           0x0800619f   Thumb Code    66  stm32f4xx_rcc.o(.text)
    RCC_PCLK1Config                          0x080061e1   Thumb Code    58  stm32f4xx_rcc.o(.text)
    RCC_PCLK2Config                          0x0800621b   Thumb Code    60  stm32f4xx_rcc.o(.text)
    RCC_GetClocksFreq                        0x08006257   Thumb Code   214  stm32f4xx_rcc.o(.text)
    RCC_RTCCLKConfig                         0x0800632d   Thumb Code   260  stm32f4xx_rcc.o(.text)
    RCC_RTCCLKCmd                            0x08006431   Thumb Code    28  stm32f4xx_rcc.o(.text)
    RCC_BackupResetCmd                       0x0800644d   Thumb Code    30  stm32f4xx_rcc.o(.text)
    RCC_I2SCLKConfig                         0x0800646b   Thumb Code    28  stm32f4xx_rcc.o(.text)
    RCC_AHB1PeriphClockCmd                   0x08006487   Thumb Code    78  stm32f4xx_rcc.o(.text)
    RCC_AHB2PeriphClockCmd                   0x080064d5   Thumb Code    78  stm32f4xx_rcc.o(.text)
    RCC_AHB3PeriphClockCmd                   0x08006523   Thumb Code   234  stm32f4xx_rcc.o(.text)
    RCC_APB1PeriphClockCmd                   0x0800660d   Thumb Code    70  stm32f4xx_rcc.o(.text)
    RCC_APB2PeriphClockCmd                   0x08006653   Thumb Code    78  stm32f4xx_rcc.o(.text)
    RCC_AHB1PeriphResetCmd                   0x080066a1   Thumb Code    78  stm32f4xx_rcc.o(.text)
    RCC_AHB2PeriphResetCmd                   0x080066ef   Thumb Code    78  stm32f4xx_rcc.o(.text)
    RCC_AHB3PeriphResetCmd                   0x0800673d   Thumb Code    78  stm32f4xx_rcc.o(.text)
    RCC_APB1PeriphResetCmd                   0x0800678b   Thumb Code    78  stm32f4xx_rcc.o(.text)
    RCC_APB2PeriphResetCmd                   0x080067d9   Thumb Code    78  stm32f4xx_rcc.o(.text)
    RCC_AHB1PeriphClockLPModeCmd             0x08006827   Thumb Code    78  stm32f4xx_rcc.o(.text)
    RCC_AHB2PeriphClockLPModeCmd             0x08006875   Thumb Code    78  stm32f4xx_rcc.o(.text)
    RCC_AHB3PeriphClockLPModeCmd             0x080068c3   Thumb Code    78  stm32f4xx_rcc.o(.text)
    RCC_APB1PeriphClockLPModeCmd             0x08006911   Thumb Code    78  stm32f4xx_rcc.o(.text)
    RCC_APB2PeriphClockLPModeCmd             0x0800695f   Thumb Code    78  stm32f4xx_rcc.o(.text)
    RCC_ITConfig                             0x080069ad   Thumb Code   108  stm32f4xx_rcc.o(.text)
    RCC_ClearFlag                            0x08006a19   Thumb Code    14  stm32f4xx_rcc.o(.text)
    RCC_GetITStatus                          0x08006a27   Thumb Code    66  stm32f4xx_rcc.o(.text)
    RCC_ClearITPendingBit                    0x08006a69   Thumb Code    32  stm32f4xx_rcc.o(.text)
    RTC_WaitForSynchro                       0x08006a91   Thumb Code    92  stm32f4xx_rtc.o(.text)
    RTC_EnterInitMode                        0x08006aed   Thumb Code    84  stm32f4xx_rtc.o(.text)
    RTC_DeInit                               0x08006b41   Thumb Code   182  stm32f4xx_rtc.o(.text)
    RTC_ExitInitMode                         0x08006bf7   Thumb Code    18  stm32f4xx_rtc.o(.text)
    RTC_Init                                 0x08006c09   Thumb Code   156  stm32f4xx_rtc.o(.text)
    RTC_StructInit                           0x08006ca5   Thumb Code    14  stm32f4xx_rtc.o(.text)
    RTC_WriteProtectionCmd                   0x08006cb3   Thumb Code    44  stm32f4xx_rtc.o(.text)
    RTC_RefClockCmd                          0x08006cdf   Thumb Code    96  stm32f4xx_rtc.o(.text)
    RTC_BypassShadowCmd                      0x08006d3f   Thumb Code    76  stm32f4xx_rtc.o(.text)
    RTC_SetTime                              0x08006dbd   Thumb Code   416  stm32f4xx_rtc.o(.text)
    RTC_TimeStructInit                       0x08006f5d   Thumb Code    12  stm32f4xx_rtc.o(.text)
    RTC_GetTime                              0x08006f69   Thumb Code    92  stm32f4xx_rtc.o(.text)
    RTC_GetSubSecond                         0x08006fc5   Thumb Code    16  stm32f4xx_rtc.o(.text)
    RTC_SetDate                              0x08006fd5   Thumb Code   368  stm32f4xx_rtc.o(.text)
    RTC_DateStructInit                       0x08007145   Thumb Code    14  stm32f4xx_rtc.o(.text)
    RTC_GetDate                              0x08007153   Thumb Code    88  stm32f4xx_rtc.o(.text)
    RTC_SetAlarm                             0x080071ab   Thumb Code   672  stm32f4xx_rtc.o(.text)
    RTC_AlarmStructInit                      0x0800744b   Thumb Code    22  stm32f4xx_rtc.o(.text)
    RTC_GetAlarm                             0x08007461   Thumb Code   156  stm32f4xx_rtc.o(.text)
    RTC_AlarmCmd                             0x080074fd   Thumb Code   148  stm32f4xx_rtc.o(.text)
    RTC_AlarmSubSecondConfig                 0x08007591   Thumb Code   206  stm32f4xx_rtc.o(.text)
    RTC_GetAlarmSubSecond                    0x0800765f   Thumb Code    40  stm32f4xx_rtc.o(.text)
    RTC_WakeUpClockConfig                    0x08007687   Thumb Code    84  stm32f4xx_rtc.o(.text)
    RTC_SetWakeUpCounter                     0x080076db   Thumb Code    46  stm32f4xx_rtc.o(.text)
    RTC_GetWakeUpCounter                     0x08007709   Thumb Code    10  stm32f4xx_rtc.o(.text)
    RTC_WakeUpCmd                            0x08007713   Thumb Code   140  stm32f4xx_rtc.o(.text)
    RTC_DayLightSavingConfig                 0x0800779f   Thumb Code   104  stm32f4xx_rtc.o(.text)
    RTC_GetStoreOperation                    0x08007807   Thumb Code    12  stm32f4xx_rtc.o(.text)
    RTC_OutputConfig                         0x08007813   Thumb Code   112  stm32f4xx_rtc.o(.text)
    RTC_CoarseCalibConfig                    0x08007883   Thumb Code    92  stm32f4xx_rtc.o(.text)
    RTC_CoarseCalibCmd                       0x080078df   Thumb Code   100  stm32f4xx_rtc.o(.text)
    RTC_CalibOutputCmd                       0x08007943   Thumb Code    80  stm32f4xx_rtc.o(.text)
    RTC_CalibOutputConfig                    0x08007993   Thumb Code    70  stm32f4xx_rtc.o(.text)
    RTC_SmoothCalibConfig                    0x080079d9   Thumb Code   180  stm32f4xx_rtc.o(.text)
    RTC_TimeStampCmd                         0x08007a8d   Thumb Code    92  stm32f4xx_rtc.o(.text)
    RTC_GetTimeStamp                         0x08007ae9   Thumb Code   158  stm32f4xx_rtc.o(.text)
    RTC_GetTimeStampSubSecond                0x08007b87   Thumb Code     8  stm32f4xx_rtc.o(.text)
    RTC_TamperTriggerConfig                  0x08007b8f   Thumb Code    82  stm32f4xx_rtc.o(.text)
    RTC_TamperCmd                            0x08007be1   Thumb Code    74  stm32f4xx_rtc.o(.text)
    RTC_TamperFilterConfig                   0x08007c2b   Thumb Code    62  stm32f4xx_rtc.o(.text)
    RTC_TamperSamplingFreqConfig             0x08007c69   Thumb Code    86  stm32f4xx_rtc.o(.text)
    RTC_TamperPinsPrechargeDuration          0x08007cbf   Thumb Code    62  stm32f4xx_rtc.o(.text)
    RTC_TimeStampOnTamperDetectionCmd        0x08007cfd   Thumb Code    60  stm32f4xx_rtc.o(.text)
    RTC_TamperPullUpCmd                      0x08007d39   Thumb Code    60  stm32f4xx_rtc.o(.text)
    RTC_WriteBackupRegister                  0x08007d75   Thumb Code   120  stm32f4xx_rtc.o(.text)
    RTC_ReadBackupRegister                   0x08007ded   Thumb Code   136  stm32f4xx_rtc.o(.text)
    RTC_TamperPinSelection                   0x08007e75   Thumb Code    46  stm32f4xx_rtc.o(.text)
    RTC_TimeStampPinSelection                0x08007ea3   Thumb Code    46  stm32f4xx_rtc.o(.text)
    RTC_OutputTypeConfig                     0x08007ed1   Thumb Code    46  stm32f4xx_rtc.o(.text)
    RTC_SynchroShiftConfig                   0x08007eff   Thumb Code   164  stm32f4xx_rtc.o(.text)
    RTC_ITConfig                             0x08007fa3   Thumb Code   138  stm32f4xx_rtc.o(.text)
    RTC_GetFlagStatus                        0x0800802d   Thumb Code   116  stm32f4xx_rtc.o(.text)
    RTC_ClearFlag                            0x080080a1   Thumb Code    56  stm32f4xx_rtc.o(.text)
    RTC_GetITStatus                          0x080080d9   Thumb Code   106  stm32f4xx_rtc.o(.text)
    RTC_ClearITPendingBit                    0x08008143   Thumb Code    56  stm32f4xx_rtc.o(.text)
    SDIO_DeInit                              0x08008185   Thumb Code    22  stm32f4xx_sdio.o(.text)
    SDIO_Init                                0x0800819b   Thumb Code   174  stm32f4xx_sdio.o(.text)
    SDIO_StructInit                          0x08008249   Thumb Code    16  stm32f4xx_sdio.o(.text)
    SDIO_ClockCmd                            0x08008259   Thumb Code    28  stm32f4xx_sdio.o(.text)
    SDIO_SetPowerState                       0x08008275   Thumb Code    30  stm32f4xx_sdio.o(.text)
    SDIO_GetPowerState                       0x08008293   Thumb Code    12  stm32f4xx_sdio.o(.text)
    SDIO_SendCommand                         0x0800829f   Thumb Code   148  stm32f4xx_sdio.o(.text)
    SDIO_CmdStructInit                       0x08008333   Thumb Code    14  stm32f4xx_sdio.o(.text)
    SDIO_GetCommandResponse                  0x08008341   Thumb Code    10  stm32f4xx_sdio.o(.text)
    SDIO_GetResponse                         0x0800834b   Thumb Code    48  stm32f4xx_sdio.o(.text)
    SDIO_DataConfig                          0x0800837b   Thumb Code   238  stm32f4xx_sdio.o(.text)
    SDIO_DataStructInit                      0x08008469   Thumb Code    20  stm32f4xx_sdio.o(.text)
    SDIO_GetDataCounter                      0x0800847d   Thumb Code     8  stm32f4xx_sdio.o(.text)
    SDIO_ReadData                            0x08008485   Thumb Code     8  stm32f4xx_sdio.o(.text)
    SDIO_WriteData                           0x0800848d   Thumb Code     8  stm32f4xx_sdio.o(.text)
    SDIO_GetFIFOCount                        0x08008495   Thumb Code     8  stm32f4xx_sdio.o(.text)
    SDIO_StartSDIOReadWait                   0x0800849d   Thumb Code    28  stm32f4xx_sdio.o(.text)
    SDIO_StopSDIOReadWait                    0x080084b9   Thumb Code    30  stm32f4xx_sdio.o(.text)
    SDIO_SetSDIOReadWaitMode                 0x080084d7   Thumb Code    30  stm32f4xx_sdio.o(.text)
    SDIO_SetSDIOOperation                    0x080084f5   Thumb Code    30  stm32f4xx_sdio.o(.text)
    SDIO_SendSDIOSuspendCmd                  0x08008513   Thumb Code    28  stm32f4xx_sdio.o(.text)
    SDIO_CommandCompletionCmd                0x0800852f   Thumb Code    30  stm32f4xx_sdio.o(.text)
    SDIO_CEATAITCmd                          0x0800854d   Thumb Code    34  stm32f4xx_sdio.o(.text)
    SDIO_SendCEATACmd                        0x0800856f   Thumb Code    50  stm32f4xx_sdio.o(.text)
    SDIO_DMACmd                              0x080085a1   Thumb Code    28  stm32f4xx_sdio.o(.text)
    SDIO_ITConfig                            0x080085bd   Thumb Code    70  stm32f4xx_sdio.o(.text)
    SDIO_GetFlagStatus                       0x08008603   Thumb Code   166  stm32f4xx_sdio.o(.text)
    SDIO_ClearFlag                           0x080086a9   Thumb Code    32  stm32f4xx_sdio.o(.text)
    SDIO_GetITStatus                         0x080086c9   Thumb Code   166  stm32f4xx_sdio.o(.text)
    SDIO_ClearITPendingBit                   0x0800876f   Thumb Code    32  stm32f4xx_sdio.o(.text)
    SPI_I2S_DeInit                           0x080087a1   Thumb Code   104  stm32f4xx_spi.o(.text)
    SPI_Init                                 0x08008809   Thumb Code   348  stm32f4xx_spi.o(.text)
    I2S_Init                                 0x08008965   Thumb Code   508  stm32f4xx_spi.o(.text)
    SPI_StructInit                           0x08008b61   Thumb Code    24  stm32f4xx_spi.o(.text)
    I2S_StructInit                           0x08008b79   Thumb Code    48  stm32f4xx_spi.o(.text)
    SPI_Cmd                                  0x08008ba9   Thumb Code    78  stm32f4xx_spi.o(.text)
    I2S_Cmd                                  0x08008bf7   Thumb Code    84  stm32f4xx_spi.o(.text)
    SPI_DataSizeConfig                       0x08008c4b   Thumb Code    74  stm32f4xx_spi.o(.text)
    SPI_BiDirectionalLineConfig              0x08008c95   Thumb Code    90  stm32f4xx_spi.o(.text)
    SPI_NSSInternalSoftwareConfig            0x08008cef   Thumb Code    92  stm32f4xx_spi.o(.text)
    SPI_SSOutputCmd                          0x08008d4b   Thumb Code    78  stm32f4xx_spi.o(.text)
    SPI_TIModeCmd                            0x08008d99   Thumb Code    78  stm32f4xx_spi.o(.text)
    I2S_FullDuplexConfig                     0x08008de7   Thumb Code   248  stm32f4xx_spi.o(.text)
    SPI_I2S_ReceiveData                      0x08008edf   Thumb Code    50  stm32f4xx_spi.o(.text)
    SPI_I2S_SendData                         0x08008f11   Thumb Code    52  stm32f4xx_spi.o(.text)
    SPI_CalculateCRC                         0x08008f45   Thumb Code   100  stm32f4xx_spi.o(.text)
    SPI_TransmitCRC                          0x08008fa9   Thumb Code    44  stm32f4xx_spi.o(.text)
    SPI_GetCRC                               0x08008fd5   Thumb Code    70  stm32f4xx_spi.o(.text)
    SPI_GetCRCPolynomial                     0x0800901b   Thumb Code    38  stm32f4xx_spi.o(.text)
    SPI_I2S_DMACmd                           0x08009041   Thumb Code   108  stm32f4xx_spi.o(.text)
    SPI_I2S_ITConfig                         0x080090ad   Thumb Code   132  stm32f4xx_spi.o(.text)
    SPI_I2S_GetFlagStatus                    0x08009131   Thumb Code   116  stm32f4xx_spi.o(.text)
    SPI_I2S_ClearFlag                        0x080091a5   Thumb Code    70  stm32f4xx_spi.o(.text)
    SPI_I2S_GetITStatus                      0x080091eb   Thumb Code   150  stm32f4xx_spi.o(.text)
    SPI_I2S_ClearITPendingBit                0x08009281   Thumb Code    82  stm32f4xx_spi.o(.text)
    USART_DeInit                             0x080092e9   Thumb Code   202  stm32f4xx_usart.o(.text)
    USART_Init                               0x080093b3   Thumb Code   456  stm32f4xx_usart.o(.text)
    USART_StructInit                         0x0800957b   Thumb Code    24  stm32f4xx_usart.o(.text)
    USART_ClockInit                          0x08009593   Thumb Code   166  stm32f4xx_usart.o(.text)
    USART_ClockStructInit                    0x08009639   Thumb Code    12  stm32f4xx_usart.o(.text)
    USART_Cmd                                0x08009645   Thumb Code    96  stm32f4xx_usart.o(.text)
    USART_SetPrescaler                       0x080096a5   Thumb Code   102  stm32f4xx_usart.o(.text)
    USART_OverSampling8Cmd                   0x0800970b   Thumb Code    94  stm32f4xx_usart.o(.text)
    USART_OneBitMethodCmd                    0x08009769   Thumb Code    96  stm32f4xx_usart.o(.text)
    USART_SendData                           0x080097c9   Thumb Code    80  stm32f4xx_usart.o(.text)
    USART_ReceiveData                        0x08009819   Thumb Code    60  stm32f4xx_usart.o(.text)
    USART_SetAddress                         0x08009855   Thumb Code    88  stm32f4xx_usart.o(.text)
    USART_ReceiverWakeUpCmd                  0x080098ad   Thumb Code    96  stm32f4xx_usart.o(.text)
    USART_WakeUpConfig                       0x0800990d   Thumb Code    92  stm32f4xx_usart.o(.text)
    USART_LINBreakDetectLengthConfig         0x08009969   Thumb Code    90  stm32f4xx_usart.o(.text)
    USART_LINCmd                             0x080099c3   Thumb Code    96  stm32f4xx_usart.o(.text)
    USART_SendBreak                          0x08009a23   Thumb Code    62  stm32f4xx_usart.o(.text)
    USART_HalfDuplexCmd                      0x08009a61   Thumb Code    96  stm32f4xx_usart.o(.text)
    USART_SetGuardTime                       0x08009ac1   Thumb Code    86  stm32f4xx_usart.o(.text)
    USART_SmartCardCmd                       0x08009b17   Thumb Code    84  stm32f4xx_usart.o(.text)
    USART_SmartCardNACKCmd                   0x08009b6b   Thumb Code    84  stm32f4xx_usart.o(.text)
    USART_IrDAConfig                         0x08009bbf   Thumb Code    90  stm32f4xx_usart.o(.text)
    USART_IrDACmd                            0x08009c19   Thumb Code    96  stm32f4xx_usart.o(.text)
    USART_DMACmd                             0x08009c79   Thumb Code   114  stm32f4xx_usart.o(.text)
    USART_ITConfig                           0x08009ceb   Thumb Code   260  stm32f4xx_usart.o(.text)
    USART_GetFlagStatus                      0x08009def   Thumb Code   170  stm32f4xx_usart.o(.text)
    USART_ClearFlag                          0x08009e99   Thumb Code   158  stm32f4xx_usart.o(.text)
    USART_GetITStatus                        0x08009f37   Thumb Code   278  stm32f4xx_usart.o(.text)
    USART_ClearITPendingBit                  0x0800a04d   Thumb Code   164  stm32f4xx_usart.o(.text)
    Reset_Handler                            0x0800a10d   Thumb Code     8  startup_stm32f4xx.o(.text)
    ADC_IRQHandler                           0x0800a127   Thumb Code     0  startup_stm32f4xx.o(.text)
    CAN1_RX0_IRQHandler                      0x0800a127   Thumb Code     0  startup_stm32f4xx.o(.text)
    CAN1_RX1_IRQHandler                      0x0800a127   Thumb Code     0  startup_stm32f4xx.o(.text)
    CAN1_SCE_IRQHandler                      0x0800a127   Thumb Code     0  startup_stm32f4xx.o(.text)
    CAN1_TX_IRQHandler                       0x0800a127   Thumb Code     0  startup_stm32f4xx.o(.text)
    CAN2_RX0_IRQHandler                      0x0800a127   Thumb Code     0  startup_stm32f4xx.o(.text)
    CAN2_RX1_IRQHandler                      0x0800a127   Thumb Code     0  startup_stm32f4xx.o(.text)
    CAN2_SCE_IRQHandler                      0x0800a127   Thumb Code     0  startup_stm32f4xx.o(.text)
    CAN2_TX_IRQHandler                       0x0800a127   Thumb Code     0  startup_stm32f4xx.o(.text)
    CRYP_IRQHandler                          0x0800a127   Thumb Code     0  startup_stm32f4xx.o(.text)
    DCMI_IRQHandler                          0x0800a127   Thumb Code     0  startup_stm32f4xx.o(.text)
    DMA1_Stream0_IRQHandler                  0x0800a127   Thumb Code     0  startup_stm32f4xx.o(.text)
    DMA1_Stream1_IRQHandler                  0x0800a127   Thumb Code     0  startup_stm32f4xx.o(.text)
    DMA1_Stream2_IRQHandler                  0x0800a127   Thumb Code     0  startup_stm32f4xx.o(.text)
    DMA1_Stream3_IRQHandler                  0x0800a127   Thumb Code     0  startup_stm32f4xx.o(.text)
    DMA1_Stream4_IRQHandler                  0x0800a127   Thumb Code     0  startup_stm32f4xx.o(.text)
    DMA1_Stream5_IRQHandler                  0x0800a127   Thumb Code     0  startup_stm32f4xx.o(.text)
    DMA1_Stream6_IRQHandler                  0x0800a127   Thumb Code     0  startup_stm32f4xx.o(.text)
    DMA1_Stream7_IRQHandler                  0x0800a127   Thumb Code     0  startup_stm32f4xx.o(.text)
    DMA2_Stream0_IRQHandler                  0x0800a127   Thumb Code     0  startup_stm32f4xx.o(.text)
    DMA2_Stream1_IRQHandler                  0x0800a127   Thumb Code     0  startup_stm32f4xx.o(.text)
    DMA2_Stream2_IRQHandler                  0x0800a127   Thumb Code     0  startup_stm32f4xx.o(.text)
    DMA2_Stream4_IRQHandler                  0x0800a127   Thumb Code     0  startup_stm32f4xx.o(.text)
    DMA2_Stream5_IRQHandler                  0x0800a127   Thumb Code     0  startup_stm32f4xx.o(.text)
    DMA2_Stream6_IRQHandler                  0x0800a127   Thumb Code     0  startup_stm32f4xx.o(.text)
    DMA2_Stream7_IRQHandler                  0x0800a127   Thumb Code     0  startup_stm32f4xx.o(.text)
    ETH_IRQHandler                           0x0800a127   Thumb Code     0  startup_stm32f4xx.o(.text)
    ETH_WKUP_IRQHandler                      0x0800a127   Thumb Code     0  startup_stm32f4xx.o(.text)
    EXTI0_IRQHandler                         0x0800a127   Thumb Code     0  startup_stm32f4xx.o(.text)
    EXTI15_10_IRQHandler                     0x0800a127   Thumb Code     0  startup_stm32f4xx.o(.text)
    EXTI1_IRQHandler                         0x0800a127   Thumb Code     0  startup_stm32f4xx.o(.text)
    EXTI2_IRQHandler                         0x0800a127   Thumb Code     0  startup_stm32f4xx.o(.text)
    EXTI3_IRQHandler                         0x0800a127   Thumb Code     0  startup_stm32f4xx.o(.text)
    EXTI4_IRQHandler                         0x0800a127   Thumb Code     0  startup_stm32f4xx.o(.text)
    FLASH_IRQHandler                         0x0800a127   Thumb Code     0  startup_stm32f4xx.o(.text)
    FPU_IRQHandler                           0x0800a127   Thumb Code     0  startup_stm32f4xx.o(.text)
    FSMC_IRQHandler                          0x0800a127   Thumb Code     0  startup_stm32f4xx.o(.text)
    HASH_RNG_IRQHandler                      0x0800a127   Thumb Code     0  startup_stm32f4xx.o(.text)
    I2C1_ER_IRQHandler                       0x0800a127   Thumb Code     0  startup_stm32f4xx.o(.text)
    I2C1_EV_IRQHandler                       0x0800a127   Thumb Code     0  startup_stm32f4xx.o(.text)
    I2C2_ER_IRQHandler                       0x0800a127   Thumb Code     0  startup_stm32f4xx.o(.text)
    I2C2_EV_IRQHandler                       0x0800a127   Thumb Code     0  startup_stm32f4xx.o(.text)
    I2C3_ER_IRQHandler                       0x0800a127   Thumb Code     0  startup_stm32f4xx.o(.text)
    I2C3_EV_IRQHandler                       0x0800a127   Thumb Code     0  startup_stm32f4xx.o(.text)
    OTG_FS_IRQHandler                        0x0800a127   Thumb Code     0  startup_stm32f4xx.o(.text)
    OTG_FS_WKUP_IRQHandler                   0x0800a127   Thumb Code     0  startup_stm32f4xx.o(.text)
    OTG_HS_EP1_IN_IRQHandler                 0x0800a127   Thumb Code     0  startup_stm32f4xx.o(.text)
    OTG_HS_EP1_OUT_IRQHandler                0x0800a127   Thumb Code     0  startup_stm32f4xx.o(.text)
    OTG_HS_IRQHandler                        0x0800a127   Thumb Code     0  startup_stm32f4xx.o(.text)
    OTG_HS_WKUP_IRQHandler                   0x0800a127   Thumb Code     0  startup_stm32f4xx.o(.text)
    PVD_IRQHandler                           0x0800a127   Thumb Code     0  startup_stm32f4xx.o(.text)
    RCC_IRQHandler                           0x0800a127   Thumb Code     0  startup_stm32f4xx.o(.text)
    RTC_Alarm_IRQHandler                     0x0800a127   Thumb Code     0  startup_stm32f4xx.o(.text)
    RTC_WKUP_IRQHandler                      0x0800a127   Thumb Code     0  startup_stm32f4xx.o(.text)
    SPI1_IRQHandler                          0x0800a127   Thumb Code     0  startup_stm32f4xx.o(.text)
    SPI2_IRQHandler                          0x0800a127   Thumb Code     0  startup_stm32f4xx.o(.text)
    SPI3_IRQHandler                          0x0800a127   Thumb Code     0  startup_stm32f4xx.o(.text)
    TAMP_STAMP_IRQHandler                    0x0800a127   Thumb Code     0  startup_stm32f4xx.o(.text)
    TIM1_BRK_TIM9_IRQHandler                 0x0800a127   Thumb Code     0  startup_stm32f4xx.o(.text)
    TIM1_CC_IRQHandler                       0x0800a127   Thumb Code     0  startup_stm32f4xx.o(.text)
    TIM1_TRG_COM_TIM11_IRQHandler            0x0800a127   Thumb Code     0  startup_stm32f4xx.o(.text)
    TIM1_UP_TIM10_IRQHandler                 0x0800a127   Thumb Code     0  startup_stm32f4xx.o(.text)
    TIM2_IRQHandler                          0x0800a127   Thumb Code     0  startup_stm32f4xx.o(.text)
    TIM3_IRQHandler                          0x0800a127   Thumb Code     0  startup_stm32f4xx.o(.text)
    TIM4_IRQHandler                          0x0800a127   Thumb Code     0  startup_stm32f4xx.o(.text)
    TIM5_IRQHandler                          0x0800a127   Thumb Code     0  startup_stm32f4xx.o(.text)
    TIM6_DAC_IRQHandler                      0x0800a127   Thumb Code     0  startup_stm32f4xx.o(.text)
    TIM7_IRQHandler                          0x0800a127   Thumb Code     0  startup_stm32f4xx.o(.text)
    TIM8_BRK_TIM12_IRQHandler                0x0800a127   Thumb Code     0  startup_stm32f4xx.o(.text)
    TIM8_CC_IRQHandler                       0x0800a127   Thumb Code     0  startup_stm32f4xx.o(.text)
    TIM8_TRG_COM_TIM14_IRQHandler            0x0800a127   Thumb Code     0  startup_stm32f4xx.o(.text)
    TIM8_UP_TIM13_IRQHandler                 0x0800a127   Thumb Code     0  startup_stm32f4xx.o(.text)
    UART4_IRQHandler                         0x0800a127   Thumb Code     0  startup_stm32f4xx.o(.text)
    UART5_IRQHandler                         0x0800a127   Thumb Code     0  startup_stm32f4xx.o(.text)
    USART6_IRQHandler                        0x0800a127   Thumb Code     0  startup_stm32f4xx.o(.text)
    WWDG_IRQHandler                          0x0800a127   Thumb Code     0  startup_stm32f4xx.o(.text)
    __user_initial_stackheap                 0x0800a129   Thumb Code     0  startup_stm32f4xx.o(.text)
    rt_system_tick_init                      0x0800a14d   Thumb Code     2  clock.o(.text)
    rt_tick_get                              0x0800a14f   Thumb Code     6  clock.o(.text)
    rt_tick_set                              0x0800a155   Thumb Code    22  clock.o(.text)
    rt_tick_increase                         0x0800a16b   Thumb Code    42  clock.o(.text)
    rt_tick_from_millisecond                 0x0800a195   Thumb Code    22  clock.o(.text)
    rt_device_find                           0x0800a1b1   Thumb Code    76  device.o(.text)
    rt_device_register                       0x0800a1fd   Thumb Code    50  device.o(.text)
    rt_device_unregister                     0x0800a22f   Thumb Code    44  device.o(.text)
    rt_device_init_all                       0x0800a25b   Thumb Code    74  device.o(.text)
    rt_device_init                           0x0800a2a5   Thumb Code    82  device.o(.text)
    rt_device_open                           0x0800a2f7   Thumb Code   172  device.o(.text)
    rt_device_close                          0x0800a3a3   Thumb Code    88  device.o(.text)
    rt_device_read                           0x0800a3fb   Thumb Code    90  device.o(.text)
    rt_device_write                          0x0800a455   Thumb Code    90  device.o(.text)
    rt_device_control                        0x0800a4af   Thumb Code    60  device.o(.text)
    rt_device_set_rx_indicate                0x0800a4eb   Thumb Code    44  device.o(.text)
    rt_device_set_tx_complete                0x0800a517   Thumb Code    44  device.o(.text)
    rt_thread_idle_sethook                   0x0800a5e9   Thumb Code     6  idle.o(.text)
    rt_thread_idle_excute                    0x0800a5ef   Thumb Code   226  idle.o(.text)
    rt_thread_idle_init                      0x0800a6e5   Thumb Code    38  idle.o(.text)
    rt_sem_init                              0x0800a831   Thumb Code    64  ipc.o(.text)
    rt_sem_detach                            0x0800a871   Thumb Code    52  ipc.o(.text)
    rt_sem_create                            0x0800a8a5   Thumb Code   102  ipc.o(.text)
    rt_sem_delete                            0x0800a90b   Thumb Code   114  ipc.o(.text)
    rt_sem_take                              0x0800a97d   Thumb Code   258  ipc.o(.text)
    rt_sem_trytake                           0x0800aa7f   Thumb Code    14  ipc.o(.text)
    rt_sem_release                           0x0800aa8d   Thumb Code    80  ipc.o(.text)
    rt_sem_control                           0x0800aadd   Thumb Code    86  ipc.o(.text)
    rt_mutex_init                            0x0800ab33   Thumb Code    80  ipc.o(.text)
    rt_mutex_detach                          0x0800ab83   Thumb Code    54  ipc.o(.text)
    rt_mutex_create                          0x0800abb9   Thumb Code   272  ipc.o(.text)
    rt_mutex_delete                          0x0800acc9   Thumb Code   124  ipc.o(.text)
    rt_mutex_take                            0x0800ad45   Thumb Code   342  ipc.o(.text)
    rt_mutex_release                         0x0800ae9b   Thumb Code   194  ipc.o(.text)
    rt_mutex_control                         0x0800af5d   Thumb Code     8  ipc.o(.text)
    rt_event_init                            0x0800af65   Thumb Code    66  ipc.o(.text)
    rt_event_detach                          0x0800afa7   Thumb Code    56  ipc.o(.text)
    rt_event_create                          0x0800afdf   Thumb Code   104  ipc.o(.text)
    rt_event_delete                          0x0800b047   Thumb Code   178  ipc.o(.text)
    rt_event_send                            0x0800b0f9   Thumb Code   232  ipc.o(.text)
    rt_event_recv                            0x0800b1e1   Thumb Code   382  ipc.o(.text)
    rt_event_control                         0x0800b35f   Thumb Code    86  ipc.o(.text)
    rt_mb_init                               0x0800b3b5   Thumb Code    96  ipc.o(.text)
    rt_mb_detach                             0x0800b415   Thumb Code    64  ipc.o(.text)
    rt_mb_create                             0x0800b455   Thumb Code   200  ipc.o(.text)
    rt_mb_delete                             0x0800b51d   Thumb Code   138  ipc.o(.text)
    rt_mb_send_wait                          0x0800b5a7   Thumb Code   376  ipc.o(.text)
    rt_mb_send                               0x0800b71f   Thumb Code    18  ipc.o(.text)
    rt_mb_recv                               0x0800b731   Thumb Code   410  ipc.o(.text)
    rt_mb_control                            0x0800b8cb   Thumb Code   128  ipc.o(.text)
    rt_mq_init                               0x0800b94b   Thumb Code   138  ipc.o(.text)
    rt_mq_detach                             0x0800b9d5   Thumb Code    56  ipc.o(.text)
    rt_mq_delete                             0x0800ba0d   Thumb Code   128  ipc.o(.text)
    rt_mq_create                             0x0800ba8d   Thumb Code   194  ipc.o(.text)
    rt_mq_send                               0x0800bb4f   Thumb Code   260  ipc.o(.text)
    rt_mq_urgent                             0x0800bc53   Thumb Code   328  ipc.o(.text)
    rt_mq_recv                               0x0800bd9b   Thumb Code   464  ipc.o(.text)
    rt_mq_control                            0x0800bf6b   Thumb Code   116  ipc.o(.text)
    rt_interrupt_enter                       0x0800c031   Thumb Code    30  irq.o(.text)
    rt_interrupt_leave                       0x0800c04f   Thumb Code    30  irq.o(.text)
    rt_interrupt_get_nest                    0x0800c06d   Thumb Code     6  irq.o(.text)
    rt_get_errno                             0x0800c079   Thumb Code    32  kservice.o(.text)
    rt_set_errno                             0x0800c099   Thumb Code    36  kservice.o(.text)
    _rt_errno                                0x0800c0bd   Thumb Code    30  kservice.o(.text)
    rt_memset                                0x0800c0db   Thumb Code    72  kservice.o(.text)
    rt_memcpy                                0x0800c123   Thumb Code   124  kservice.o(.text)
    rt_memmove                               0x0800c19f   Thumb Code    66  kservice.o(.text)
    rt_memcmp                                0x0800c1e1   Thumb Code    38  kservice.o(.text)
    rt_strlen                                0x0800c207   Thumb Code    18  kservice.o(.text)
    rt_strstr                                0x0800c219   Thumb Code    58  kservice.o(.text)
    rt_strcasecmp                            0x0800c253   Thumb Code    48  kservice.o(.text)
    rt_strncpy                               0x0800c283   Thumb Code    52  kservice.o(.text)
    rt_strncmp                               0x0800c2b7   Thumb Code    40  kservice.o(.text)
    rt_strcmp                                0x0800c2df   Thumb Code    28  kservice.o(.text)
    rt_strdup                                0x0800c2fb   Thumb Code    40  kservice.o(.text)
    rt_vsnprintf                             0x0800c4db   Thumb Code   800  kservice.o(.text)
    rt_kprintf                               0x0800c7fb   Thumb Code    66  kservice.o(.text)
    rt_show_version                          0x0800c83d   Thumb Code    38  kservice.o(.text)
    rt_snprintf                              0x0800c863   Thumb Code    38  kservice.o(.text)
    rt_vsprintf                              0x0800c889   Thumb Code    22  kservice.o(.text)
    rt_sprintf                               0x0800c89f   Thumb Code    34  kservice.o(.text)
    rt_console_get_device                    0x0800c8c1   Thumb Code     6  kservice.o(.text)
    rt_console_set_device                    0x0800c8c7   Thumb Code    48  kservice.o(.text)
    rt_malloc_align                          0x0800c8f7   Thumb Code    66  kservice.o(.text)
    rt_free_align                            0x0800c939   Thumb Code    16  kservice.o(.text)
    __rt_ffs                                 0x0800c949   Thumb Code    70  kservice.o(.text)
    rt_malloc_sethook                        0x0800ca2d   Thumb Code     6  mem.o(.text)
    rt_free_sethook                          0x0800ca33   Thumb Code     6  mem.o(.text)
    rt_system_heap_init                      0x0800cb0f   Thumb Code   222  mem.o(.text)
    rt_malloc                                0x0800cbed   Thumb Code   940  mem.o(.text)
    rt_free                                  0x0800cf99   Thumb Code   346  mem.o(.text)
    rt_realloc                               0x0800d0f3   Thumb Code   330  mem.o(.text)
    rt_calloc                                0x0800d23d   Thumb Code    98  mem.o(.text)
    rt_memory_info                           0x0800d29f   Thumb Code    26  mem.o(.text)
    list_mem                                 0x0800d2b9   Thumb Code    34  mem.o(.text)
    rt_memheap_init                          0x0800d3e1   Thumb Code   192  memheap.o(.text)
    rt_memheap_detach                        0x0800d4a1   Thumb Code    52  memheap.o(.text)
    rt_memheap_alloc                         0x0800d4d5   Thumb Code   326  memheap.o(.text)
    rt_memheap_free                          0x0800d61b   Thumb Code   240  memheap.o(.text)
    rt_memheap_realloc                       0x0800d70b   Thumb Code   758  memheap.o(.text)
    rt_mp_alloc_sethook                      0x0800da05   Thumb Code     6  mempool.o(.text)
    rt_mp_free_sethook                       0x0800da0b   Thumb Code     6  mempool.o(.text)
    rt_mp_init                               0x0800da11   Thumb Code   146  mempool.o(.text)
    rt_mp_detach                             0x0800daa3   Thumb Code    94  mempool.o(.text)
    rt_mp_create                             0x0800db01   Thumb Code   192  mempool.o(.text)
    rt_mp_delete                             0x0800dbc1   Thumb Code   162  mempool.o(.text)
    rt_mp_alloc                              0x0800dc63   Thumb Code   246  mempool.o(.text)
    rt_mp_free                               0x0800dd59   Thumb Code    98  mempool.o(.text)
    rt_system_module_init                    0x0800de45   Thumb Code    16  module.o(.text)
    rt_module_self                           0x0800de7b   Thumb Code    18  module.o(.text)
    rt_module_load_sethook                   0x0800e109   Thumb Code     6  module.o(.text)
    rt_module_unload_sethook                 0x0800e10f   Thumb Code     6  module.o(.text)
    rt_module_load                           0x0800eaed   Thumb Code   276  module.o(.text)
    rt_module_open                           0x0800ec55   Thumb Code   278  module.o(.text)
    rt_module_destroy                        0x0800ed6b   Thumb Code   826  module.o(.text)
    rt_module_unload                         0x0800f0a5   Thumb Code   162  module.o(.text)
    rt_module_find                           0x0800f147   Thumb Code   122  module.o(.text)
    rt_object_attach_sethook                 0x0800f211   Thumb Code     6  object.o(.text)
    rt_object_detach_sethook                 0x0800f217   Thumb Code     6  object.o(.text)
    rt_object_trytake_sethook                0x0800f21d   Thumb Code     6  object.o(.text)
    rt_object_take_sethook                   0x0800f223   Thumb Code     6  object.o(.text)
    rt_object_put_sethook                    0x0800f229   Thumb Code     6  object.o(.text)
    rt_system_object_init                    0x0800f22f   Thumb Code     2  object.o(.text)
    rt_object_get_information                0x0800f231   Thumb Code    10  object.o(.text)
    rt_object_init                           0x0800f23b   Thumb Code    96  object.o(.text)
    rt_object_detach                         0x0800f29b   Thumb Code    74  object.o(.text)
    rt_object_allocate                       0x0800f2e5   Thumb Code   194  object.o(.text)
    rt_object_delete                         0x0800f3a7   Thumb Code   120  object.o(.text)
    rt_object_is_systemobject                0x0800f41f   Thumb Code    52  object.o(.text)
    rt_object_find                           0x0800f453   Thumb Code   110  object.o(.text)
    rt_scheduler_sethook                     0x0800f579   Thumb Code     6  scheduler.o(.text)
    rt_system_scheduler_init                 0x0800f5e3   Thumb Code    56  scheduler.o(.text)
    rt_system_scheduler_start                0x0800f61b   Thumb Code    36  scheduler.o(.text)
    rt_schedule                              0x0800f63f   Thumb Code   134  scheduler.o(.text)
    rt_schedule_insert_thread                0x0800f6c5   Thumb Code   100  scheduler.o(.text)
    rt_schedule_remove_thread                0x0800f729   Thumb Code   112  scheduler.o(.text)
    rt_enter_critical                        0x0800f799   Thumb Code    28  scheduler.o(.text)
    rt_exit_critical                         0x0800f7b5   Thumb Code    54  scheduler.o(.text)
    rt_thread_timeout                        0x0800f91b   Thumb Code   102  thread.o(.text)
    rt_thread_init                           0x0800fa1f   Thumb Code   110  thread.o(.text)
    rt_thread_self                           0x0800fa8d   Thumb Code     6  thread.o(.text)
    rt_thread_resume                         0x0800fa93   Thumb Code   108  thread.o(.text)
    rt_thread_startup                        0x0800faff   Thumb Code   116  thread.o(.text)
    rt_thread_detach                         0x0800fb73   Thumb Code    92  thread.o(.text)
    rt_thread_create                         0x0800fbcf   Thumb Code    80  thread.o(.text)
    rt_thread_delete                         0x0800fc1f   Thumb Code    82  thread.o(.text)
    rt_thread_yield                          0x0800fc71   Thumb Code   318  thread.o(.text)
    rt_thread_suspend                        0x0800fdaf   Thumb Code    90  thread.o(.text)
    rt_thread_sleep                          0x0800fe09   Thumb Code   100  thread.o(.text)
    rt_thread_delay                          0x0800fe6d   Thumb Code    12  thread.o(.text)
    rt_thread_control                        0x0800fe79   Thumb Code   146  thread.o(.text)
    rt_thread_find                           0x0800ff0b   Thumb Code    76  thread.o(.text)
    rt_timer_timeout_sethook                 0x0800ff8d   Thumb Code     6  timer.o(.text)
    rt_timer_init                            0x0800ffd5   Thumb Code    76  timer.o(.text)
    rt_timer_detach                          0x08010021   Thumb Code    64  timer.o(.text)
    rt_timer_create                          0x08010061   Thumb Code    54  timer.o(.text)
    rt_timer_delete                          0x08010097   Thumb Code    64  timer.o(.text)
    rt_timer_start                           0x080100d7   Thumb Code   230  timer.o(.text)
    rt_timer_stop                            0x080101bd   Thumb Code   100  timer.o(.text)
    rt_timer_control                         0x08010221   Thumb Code    94  timer.o(.text)
    rt_timer_check                           0x0801027f   Thumb Code   150  timer.o(.text)
    rt_timer_next_timeout_tick               0x08010315   Thumb Code    10  timer.o(.text)
    rt_system_timer_init                     0x0801031f   Thumb Code     2  timer.o(.text)
    rt_system_timer_thread_init              0x08010321   Thumb Code     2  timer.o(.text)
    rt_hw_stack_init                         0x080103b5   Thumb Code    74  cpuport.o(.text)
    rt_hw_exception_install                  0x080103ff   Thumb Code     6  cpuport.o(.text)
    rt_hw_hard_fault_exception               0x08010405   Thumb Code   112  cpuport.o(.text)
    rt_hw_cpu_shutdown                       0x08010475   Thumb Code    36  cpuport.o(.text)
    rt_hw_interrupt_disable                  0x08010575   Thumb Code     8  context_rvds.o(.text)
    rt_hw_interrupt_enable                   0x0801057d   Thumb Code     6  context_rvds.o(.text)
    rt_hw_context_switch                     0x08010583   Thumb Code    32  context_rvds.o(.text)
    rt_hw_context_switch_interrupt           0x08010583   Thumb Code     0  context_rvds.o(.text)
    PendSV_Handler                           0x080105a3   Thumb Code   108  context_rvds.o(.text)
    rt_hw_context_switch_to                  0x0801060f   Thumb Code    70  context_rvds.o(.text)
    rt_hw_interrupt_thread_switch            0x08010655   Thumb Code     4  context_rvds.o(.text)
    HardFault_Handler                        0x08010659   Thumb Code    20  context_rvds.o(.text)
    dfs_init                                 0x08010685   Thumb Code    66  dfs.o(.text)
    dfs_lock                                 0x080106c7   Thumb Code    46  dfs.o(.text)
    dfs_unlock                               0x080106f5   Thumb Code    10  dfs.o(.text)
    fd_new                                   0x080106ff   Thumb Code    64  dfs.o(.text)
    fd_get                                   0x0801073f   Thumb Code    58  dfs.o(.text)
    fd_put                                   0x08010779   Thumb Code    64  dfs.o(.text)
    dfs_normalize_path                       0x080107b9   Thumb Code   346  dfs.o(.text)
    fd_is_open                               0x08010913   Thumb Code   148  dfs.o(.text)
    dfs_subdir                               0x080109a7   Thumb Code    56  dfs.o(.text)
    dfs_register                             0x08010a59   Thumb Code    88  dfs_fs.o(.text)
    dfs_filesystem_lookup                    0x08010ab1   Thumb Code   126  dfs_fs.o(.text)
    dfs_filesystem_get_partition             0x08010b2f   Thumb Code   246  dfs_fs.o(.text)
    dfs_mount                                0x08010c25   Thumb Code   444  dfs_fs.o(.text)
    dfs_unmount                              0x08010de1   Thumb Code   288  dfs_fs.o(.text)
    dfs_mkfs                                 0x08010f01   Thumb Code   126  dfs_fs.o(.text)
    dfs_statfs                               0x08010f7f   Thumb Code    40  dfs_fs.o(.text)
    dfs_mount_table                          0x08010fa7   Thumb Code   126  dfs_fs.o(.text)
    mkfs                                     0x08011025   Thumb Code    16  dfs_fs.o(.text)
    df                                       0x08011035   Thumb Code    68  dfs_fs.o(.text)
    dfs_file_open                            0x08011119   Thumb Code   220  dfs_file.o(.text)
    dfs_file_close                           0x080111f5   Thumb Code    56  dfs_file.o(.text)
    dfs_file_ioctl                           0x0801122d   Thumb Code    52  dfs_file.o(.text)
    dfs_file_read                            0x08011261   Thumb Code    68  dfs_file.o(.text)
    dfs_file_getdents                        0x080112a5   Thumb Code    54  dfs_file.o(.text)
    dfs_file_unlink                          0x080112db   Thumb Code   150  dfs_file.o(.text)
    dfs_file_write                           0x08011371   Thumb Code    48  dfs_file.o(.text)
    dfs_file_flush                           0x080113a1   Thumb Code    36  dfs_file.o(.text)
    dfs_file_lseek                           0x080113c5   Thumb Code    54  dfs_file.o(.text)
    dfs_file_stat                            0x080113fb   Thumb Code   188  dfs_file.o(.text)
    dfs_file_rename                          0x080114b7   Thumb Code   174  dfs_file.o(.text)
    ls                                       0x08011565   Thumb Code   210  dfs_file.o(.text)
    rm                                       0x08011637   Thumb Code    24  dfs_file.o(.text)
    cat                                      0x0801164f   Thumb Code    80  dfs_file.o(.text)
    copy                                     0x0801169f   Thumb Code   154  dfs_file.o(.text)
    open                                     0x080117f5   Thumb Code    94  dfs_posix.o(.text)
    close                                    0x08011853   Thumb Code    68  dfs_posix.o(.text)
    read                                     0x08011897   Thumb Code    80  dfs_posix.o(.text)
    write                                    0x080118e7   Thumb Code    80  dfs_posix.o(.text)
    lseek                                    0x08011937   Thumb Code   138  dfs_posix.o(.text)
    rename                                   0x080119c1   Thumb Code    36  dfs_posix.o(.text)
    unlink                                   0x080119e5   Thumb Code    32  dfs_posix.o(.text)
    stat                                     0x08011a05   Thumb Code    36  dfs_posix.o(.text)
    fstat                                    0x08011a29   Thumb Code    88  dfs_posix.o(.text)
    statfs                                   0x08011a81   Thumb Code    36  dfs_posix.o(.text)
    mkdir                                    0x08011aa5   Thumb Code    92  dfs_posix.o(.text)
    rmdir                                    0x08011b01   Thumb Code    32  dfs_posix.o(.text)
    opendir                                  0x08011b21   Thumb Code   130  dfs_posix.o(.text)
    readdir                                  0x08011ba3   Thumb Code   116  dfs_posix.o(.text)
    telldir                                  0x08011c17   Thumb Code    50  dfs_posix.o(.text)
    seekdir                                  0x08011c49   Thumb Code    58  dfs_posix.o(.text)
    rewinddir                                0x08011c83   Thumb Code    56  dfs_posix.o(.text)
    closedir                                 0x08011cbb   Thumb Code    74  dfs_posix.o(.text)
    chdir                                    0x08011d05   Thumb Code   140  dfs_posix.o(.text)
    getcwd                                   0x08011d91   Thumb Code    28  dfs_posix.o(.text)
    dfs_elm_mount                            0x08011e31   Thumb Code   186  dfs_elm.o(.text)
    dfs_elm_unmount                          0x08011eeb   Thumb Code    94  dfs_elm.o(.text)
    dfs_elm_mkfs                             0x08011f49   Thumb Code   168  dfs_elm.o(.text)
    dfs_elm_statfs                           0x08011ff1   Thumb Code   156  dfs_elm.o(.text)
    dfs_elm_open                             0x0801208d   Thumb Code   334  dfs_elm.o(.text)
    dfs_elm_close                            0x080121db   Thumb Code   310  dfs_elm.o(.text)
    dfs_elm_ioctl                            0x08012311   Thumb Code     8  dfs_elm.o(.text)
    dfs_elm_read                             0x08012319   Thumb Code    92  dfs_elm.o(.text)
    dfs_elm_write                            0x08012375   Thumb Code    96  dfs_elm.o(.text)
    dfs_elm_flush                            0x080123d5   Thumb Code    56  dfs_elm.o(.text)
    dfs_elm_lseek                            0x0801240d   Thumb Code   154  dfs_elm.o(.text)
    dfs_elm_getdents                         0x080124a7   Thumb Code   264  dfs_elm.o(.text)
    dfs_elm_unlink                           0x080125af   Thumb Code    86  dfs_elm.o(.text)
    dfs_elm_rename                           0x08012605   Thumb Code    94  dfs_elm.o(.text)
    dfs_elm_stat                             0x08012663   Thumb Code   326  dfs_elm.o(.text)
    elm_init                                 0x080127a9   Thumb Code    12  dfs_elm.o(.text)
    disk_initialize                          0x080127b5   Thumb Code     6  dfs_elm.o(.text)
    disk_status                              0x080127bb   Thumb Code     6  dfs_elm.o(.text)
    disk_read                                0x080127c1   Thumb Code    46  dfs_elm.o(.text)
    disk_write                               0x080127ef   Thumb Code    46  dfs_elm.o(.text)
    disk_ioctl                               0x0801281d   Thumb Code   156  dfs_elm.o(.text)
    get_fattime                              0x080128b9   Thumb Code     4  dfs_elm.o(.text)
    ff_cre_syncobj                           0x080128bd   Thumb Code    40  dfs_elm.o(.text)
    ff_del_syncobj                           0x080128e5   Thumb Code    16  dfs_elm.o(.text)
    ff_req_grant                             0x080128f5   Thumb Code    24  dfs_elm.o(.text)
    ff_rel_grant                             0x0801290d   Thumb Code    12  dfs_elm.o(.text)
    ff_memalloc                              0x08012919   Thumb Code    12  dfs_elm.o(.text)
    ff_memfree                               0x08012925   Thumb Code    12  dfs_elm.o(.text)
    clust2sect                               0x08012b0f   Thumb Code    26  ff.o(.text)
    get_fat                                  0x08012b29   Thumb Code   300  ff.o(.text)
    put_fat                                  0x08012c55   Thumb Code   384  ff.o(.text)
    gen_numname                              0x080132d1   Thumb Code   190  ff.o(.text)
    f_mount                                  0x08014001   Thumb Code    70  ff.o(.text)
    f_open                                   0x08014047   Thumb Code   412  ff.o(.text)
    f_read                                   0x080141e3   Thumb Code   612  ff.o(.text)
    f_write                                  0x08014447   Thumb Code   670  ff.o(.text)
    f_sync                                   0x080146e5   Thumb Code   200  ff.o(.text)
    f_close                                  0x080147ad   Thumb Code    22  ff.o(.text)
    f_lseek                                  0x080147c3   Thumb Code   912  ff.o(.text)
    f_opendir                                0x08014b53   Thumb Code   152  ff.o(.text)
    f_readdir                                0x08014beb   Thumb Code   130  ff.o(.text)
    f_seekdir                                0x08014c6d   Thumb Code    60  ff.o(.text)
    f_stat                                   0x08014ca9   Thumb Code    98  ff.o(.text)
    f_getfree                                0x08014d0b   Thumb Code   286  ff.o(.text)
    f_truncate                               0x08014e29   Thumb Code   164  ff.o(.text)
    f_unlink                                 0x08014ecd   Thumb Code   218  ff.o(.text)
    f_mkdir                                  0x08014fa7   Thumb Code   432  ff.o(.text)
    f_chmod                                  0x08015157   Thumb Code   128  ff.o(.text)
    f_utime                                  0x080151d7   Thumb Code   128  ff.o(.text)
    f_rename                                 0x08015257   Thumb Code   336  ff.o(.text)
    f_mkfs                                   0x080153a7   Thumb Code  1598  ff.o(.text)
    elm_get_vol                              0x080159e5   Thumb Code    32  ff.o(.text)
    ff_convert_init                          0x08015a21   Thumb Code    62  ccfile.o(.text)
    ff_convert                               0x08015a5f   Thumb Code    70  ccfile.o(.text)
    ff_wtoupper                              0x08015aa5   Thumb Code    46  ccfile.o(.text)
    dfs_device_fs_mount                      0x08015b75   Thumb Code     6  devfs.o(.text)
    dfs_device_fs_ioctl                      0x08015b7b   Thumb Code    98  devfs.o(.text)
    dfs_device_fs_read                       0x08015bdd   Thumb Code    98  devfs.o(.text)
    dfs_device_fs_write                      0x08015c3f   Thumb Code    98  devfs.o(.text)
    dfs_device_fs_close                      0x08015ca1   Thumb Code   136  devfs.o(.text)
    dfs_device_fs_open                       0x08015d29   Thumb Code   172  devfs.o(.text)
    dfs_device_fs_stat                       0x08015dd5   Thumb Code   148  devfs.o(.text)
    dfs_device_fs_getdents                   0x08015e69   Thumb Code   138  devfs.o(.text)
    devfs_init                               0x08015ef3   Thumb Code    12  devfs.o(.text)
    time                                     0x08015f79   Thumb Code    72  rtc.o(.text)
    set_date                                 0x08015fc1   Thumb Code   104  rtc.o(.text)
    set_time                                 0x08016029   Thumb Code    98  rtc.o(.text)
    list_date                                0x0801608b   Thumb Code    28  rtc.o(.text)
    rt_hw_serial_register                    0x0801646b   Thumb Code   248  serial.o(.text)
    rt_hw_serial_isr                         0x08016563   Thumb Code   184  serial.o(.text)
    rt_hw_serial_dma_tx_isr                  0x0801661b   Thumb Code    52  serial.o(.text)
    rt_spi_bus_register                      0x0801668d   Thumb Code    50  spi_core.o(.text)
    rt_spi_bus_attach_device                 0x080166bf   Thumb Code    74  spi_core.o(.text)
    rt_spi_configure                         0x08016709   Thumb Code   114  spi_core.o(.text)
    rt_spi_send_then_send                    0x0801677b   Thumb Code   276  spi_core.o(.text)
    rt_spi_send_then_recv                    0x0801688f   Thumb Code   276  spi_core.o(.text)
    rt_spi_transfer                          0x080169a3   Thumb Code   234  spi_core.o(.text)
    rt_spi_transfer_message                  0x08016a8d   Thumb Code   278  spi_core.o(.text)
    rt_spi_take_bus                          0x08016ba3   Thumb Code   178  spi_core.o(.text)
    rt_spi_release_bus                       0x08016c55   Thumb Code   132  spi_core.o(.text)
    rt_spi_take                              0x08016cd9   Thumb Code   120  spi_core.o(.text)
    rt_spi_release                           0x08016d51   Thumb Code   120  spi_core.o(.text)
    rt_spi_bus_device_init                   0x08016f13   Thumb Code    76  spi_dev.o(.text)
    rt_spidev_device_init                    0x08017079   Thumb Code    76  spi_dev.o(.text)
    rt_data_queue_init                       0x0801719f   Thumb Code    92  dataqueue.o(.text)
    rt_data_queue_push                       0x080171fb   Thumb Code   314  dataqueue.o(.text)
    rt_data_queue_pop                        0x08017335   Thumb Code   414  dataqueue.o(.text)
    rt_data_queue_peak                       0x080174d3   Thumb Code   112  dataqueue.o(.text)
    rt_data_queue_reset                      0x08017543   Thumb Code   252  dataqueue.o(.text)
    rt_pipe_init                             0x08017909   Thumb Code   148  pipe.o(.text)
    rt_pipe_detach                           0x0801799d   Thumb Code    12  pipe.o(.text)
    rt_pipe_create                           0x080179a9   Thumb Code    80  pipe.o(.text)
    rt_pipe_destroy                          0x080179f9   Thumb Code    30  pipe.o(.text)
    rt_portal_init                           0x08017cf9   Thumb Code   232  portal.o(.text)
    rt_portal_detach                         0x08017de1   Thumb Code    12  portal.o(.text)
    rt_portal_create                         0x08017ded   Thumb Code    44  portal.o(.text)
    rt_portal_destroy                        0x08017e19   Thumb Code    24  portal.o(.text)
    rt_ringbuffer_init                       0x08017f59   Thumb Code   116  ringbuffer.o(.text)
    rt_ringbuffer_put                        0x08017fcd   Thumb Code   194  ringbuffer.o(.text)
    rt_ringbuffer_put_force                  0x0801808f   Thumb Code   234  ringbuffer.o(.text)
    rt_ringbuffer_get                        0x08018179   Thumb Code   190  ringbuffer.o(.text)
    rt_ringbuffer_putchar                    0x08018237   Thumb Code   120  ringbuffer.o(.text)
    rt_ringbuffer_putchar_force              0x080182af   Thumb Code   242  ringbuffer.o(.text)
    rt_ringbuffer_getchar                    0x080183a1   Thumb Code   124  ringbuffer.o(.text)
    hello                                    0x08018435   Thumb Code    12  cmd.o(.text)
    version                                  0x08018441   Thumb Code    10  cmd.o(.text)
    list_thread                              0x080184f7   Thumb Code    10  cmd.o(.text)
    list_sem                                 0x08018595   Thumb Code    12  cmd.o(.text)
    list_event                               0x08018601   Thumb Code    12  cmd.o(.text)
    list_mutex                               0x08018651   Thumb Code    12  cmd.o(.text)
    list_mailbox                             0x080186d5   Thumb Code    12  cmd.o(.text)
    list_msgqueue                            0x0801874d   Thumb Code    12  cmd.o(.text)
    list_memheap                             0x0801878f   Thumb Code    12  cmd.o(.text)
    list_mempool                             0x08018801   Thumb Code    12  cmd.o(.text)
    list_timer                               0x08018c2b   Thumb Code    10  cmd.o(.text)
    list_device                              0x08018c83   Thumb Code    12  cmd.o(.text)
    list_module                              0x08018c8f   Thumb Code    48  cmd.o(.text)
    list_mod_detail                          0x08018cbf   Thumb Code   410  cmd.o(.text)
    list                                     0x08018e59   Thumb Code   126  cmd.o(.text)
    list_prefix                              0x08018f19   Thumb Code   922  cmd.o(.text)
    finsh_compiler_run                       0x0801aa7f   Thumb Code    88  finsh_compiler.o(.text)
    finsh_error_init                         0x0801aae9   Thumb Code     8  finsh_error.o(.text)
    finsh_error_set                          0x0801aaf1   Thumb Code    10  finsh_error.o(.text)
    finsh_errno                              0x0801aafb   Thumb Code     6  finsh_error.o(.text)
    finsh_error_string                       0x0801ab01   Thumb Code    10  finsh_error.o(.text)
    finsh_heap_init                          0x0801ab15   Thumb Code    36  finsh_heap.o(.text)
    finsh_heap_free                          0x0801ac39   Thumb Code    34  finsh_heap.o(.text)
    finsh_heap_allocate                      0x0801aca9   Thumb Code   106  finsh_heap.o(.text)
    finsh_init                               0x0801ad25   Thumb Code    30  finsh_init.o(.text)
    finsh_stack_bottom                       0x0801ad43   Thumb Code     6  finsh_init.o(.text)
    finsh_flush                              0x0801ad49   Thumb Code    22  finsh_init.o(.text)
    finsh_reset                              0x0801ad5f   Thumb Code    24  finsh_init.o(.text)
    finsh_node_init                          0x0801ad7d   Thumb Code    16  finsh_node.o(.text)
    finsh_node_allocate                      0x0801ad8d   Thumb Code    56  finsh_node.o(.text)
    finsh_node_new_id                        0x0801adc5   Thumb Code   118  finsh_node.o(.text)
    finsh_node_new_char                      0x0801ae3b   Thumb Code    30  finsh_node.o(.text)
    finsh_node_new_int                       0x0801ae59   Thumb Code    30  finsh_node.o(.text)
    finsh_node_new_long                      0x0801ae77   Thumb Code    30  finsh_node.o(.text)
    finsh_node_new_string                    0x0801ae95   Thumb Code    74  finsh_node.o(.text)
    finsh_node_new_ptr                       0x0801aedf   Thumb Code    30  finsh_node.o(.text)
    OP_no_op                                 0x0801af01   Thumb Code     2  finsh_ops.o(.text)
    OP_add_byte                              0x0801af03   Thumb Code    42  finsh_ops.o(.text)
    OP_add_word                              0x0801af2d   Thumb Code    44  finsh_ops.o(.text)
    OP_add_dword                             0x0801af59   Thumb Code    42  finsh_ops.o(.text)
    OP_sub_byte                              0x0801af83   Thumb Code    42  finsh_ops.o(.text)
    OP_sub_word                              0x0801afad   Thumb Code    44  finsh_ops.o(.text)
    OP_sub_dword                             0x0801afd9   Thumb Code    42  finsh_ops.o(.text)
    OP_div_byte                              0x0801b003   Thumb Code    44  finsh_ops.o(.text)
    OP_div_word                              0x0801b02f   Thumb Code    46  finsh_ops.o(.text)
    OP_div_dword                             0x0801b05d   Thumb Code    44  finsh_ops.o(.text)
    OP_mod_byte                              0x0801b089   Thumb Code    48  finsh_ops.o(.text)
    OP_mod_word                              0x0801b0b9   Thumb Code    48  finsh_ops.o(.text)
    OP_mod_dword                             0x0801b0e9   Thumb Code    48  finsh_ops.o(.text)
    OP_mul_byte                              0x0801b119   Thumb Code    44  finsh_ops.o(.text)
    OP_mul_word                              0x0801b145   Thumb Code    46  finsh_ops.o(.text)
    OP_mul_dword                             0x0801b173   Thumb Code    42  finsh_ops.o(.text)
    OP_and_byte                              0x0801b19d   Thumb Code    42  finsh_ops.o(.text)
    OP_and_word                              0x0801b1c7   Thumb Code    42  finsh_ops.o(.text)
    OP_and_dword                             0x0801b1f1   Thumb Code    42  finsh_ops.o(.text)
    OP_or_byte                               0x0801b21b   Thumb Code    42  finsh_ops.o(.text)
    OP_or_word                               0x0801b245   Thumb Code    42  finsh_ops.o(.text)
    OP_or_dword                              0x0801b26f   Thumb Code    42  finsh_ops.o(.text)
    OP_xor_byte                              0x0801b299   Thumb Code    42  finsh_ops.o(.text)
    OP_xor_word                              0x0801b2c3   Thumb Code    46  finsh_ops.o(.text)
    OP_xor_dword                             0x0801b2f1   Thumb Code    42  finsh_ops.o(.text)
    OP_bw_byte                               0x0801b31b   Thumb Code    20  finsh_ops.o(.text)
    OP_bw_word                               0x0801b32f   Thumb Code    20  finsh_ops.o(.text)
    OP_bw_dword                              0x0801b343   Thumb Code    20  finsh_ops.o(.text)
    OP_shl_byte                              0x0801b357   Thumb Code    42  finsh_ops.o(.text)
    OP_shl_word                              0x0801b381   Thumb Code    44  finsh_ops.o(.text)
    OP_shl_dword                             0x0801b3ad   Thumb Code    42  finsh_ops.o(.text)
    OP_shr_byte                              0x0801b3d7   Thumb Code    42  finsh_ops.o(.text)
    OP_shr_word                              0x0801b401   Thumb Code    42  finsh_ops.o(.text)
    OP_shr_dword                             0x0801b42b   Thumb Code    42  finsh_ops.o(.text)
    OP_ld_byte                               0x0801b455   Thumb Code    34  finsh_ops.o(.text)
    OP_ld_word                               0x0801b477   Thumb Code    46  finsh_ops.o(.text)
    OP_ld_dword                              0x0801b4a5   Thumb Code    64  finsh_ops.o(.text)
    OP_ld_value_byte                         0x0801b4e5   Thumb Code    66  finsh_ops.o(.text)
    OP_ld_value_byte_stack                   0x0801b527   Thumb Code    20  finsh_ops.o(.text)
    OP_ld_value_word                         0x0801b53b   Thumb Code    66  finsh_ops.o(.text)
    OP_ld_value_word_stack                   0x0801b57d   Thumb Code    20  finsh_ops.o(.text)
    OP_ld_value_dword                        0x0801b591   Thumb Code    66  finsh_ops.o(.text)
    OP_ld_value_dword_stack                  0x0801b5d3   Thumb Code    20  finsh_ops.o(.text)
    OP_st_byte                               0x0801b5e7   Thumb Code    30  finsh_ops.o(.text)
    OP_st_word                               0x0801b605   Thumb Code    30  finsh_ops.o(.text)
    OP_st_dword                              0x0801b623   Thumb Code    30  finsh_ops.o(.text)
    OP_pop                                   0x0801b641   Thumb Code    12  finsh_ops.o(.text)
    OP_call                                  0x0801b64d   Thumb Code   906  finsh_ops.o(.text)
    finsh_parser_run                         0x0801c26d   Thumb Code   220  finsh_parser.o(.text)
    finsh_parser_init                        0x0801c349   Thumb Code    16  finsh_parser.o(.text)
    finsh_token_init                         0x0801c359   Thumb Code    20  finsh_token.o(.text)
    token_get_string                         0x0801c733   Thumb Code   120  finsh_token.o(.text)
    finsh_token_token                        0x0801c96b   Thumb Code    24  finsh_token.o(.text)
    finsh_token_get_token                    0x0801c983   Thumb Code    20  finsh_token.o(.text)
    finsh_var_init                           0x0801c99d   Thumb Code    14  finsh_var.o(.text)
    finsh_var_insert                         0x0801c9ab   Thumb Code   114  finsh_var.o(.text)
    finsh_var_delete                         0x0801ca1d   Thumb Code    68  finsh_var.o(.text)
    finsh_var_lookup                         0x0801ca61   Thumb Code    58  finsh_var.o(.text)
    finsh_sysvar_append                      0x0801ca9b   Thumb Code    62  finsh_var.o(.text)
    finsh_sysvar_lookup                      0x0801cad9   Thumb Code    78  finsh_var.o(.text)
    finsh_vm_run                             0x0801cb39   Thumb Code    62  finsh_vm.o(.text)
    finsh_syscall_append                     0x0801cb77   Thumb Code    54  finsh_vm.o(.text)
    finsh_syscall_lookup                     0x0801cbad   Thumb Code    78  finsh_vm.o(.text)
    strcmp                                   0x0801cc1d   Thumb Code    28  shell.o(.text)
    strdup                                   0x0801cc39   Thumb Code    40  shell.o(.text)
    finsh_get_prompt                         0x0801cc61   Thumb Code    26  shell.o(.text)
    finsh_set_device                         0x0801ccaf   Thumb Code   134  shell.o(.text)
    finsh_get_device                         0x0801cd35   Thumb Code    46  shell.o(.text)
    finsh_set_echo                           0x0801cd63   Thumb Code    60  shell.o(.text)
    finsh_get_echo                           0x0801cd9f   Thumb Code    50  shell.o(.text)
    finsh_auto_complete                      0x0801cdd1   Thumb Code    34  shell.o(.text)
    finsh_run_line                           0x0801cdf3   Thumb Code   150  shell.o(.text)
    finsh_handle_history                     0x0801ce89   Thumb Code   270  shell.o(.text)
    finsh_push_history                       0x0801cf97   Thumb Code   346  shell.o(.text)
    finsh_thread_entry                       0x0801d0f1   Thumb Code   596  shell.o(.text)
    finsh_system_function_init               0x0801d345   Thumb Code    10  shell.o(.text)
    finsh_system_var_init                    0x0801d34f   Thumb Code    10  shell.o(.text)
    finsh_system_init                        0x0801d359   Thumb Code   122  shell.o(.text)
    rt_components_board_init                 0x0801d445   Thumb Code    20  components.o(.text)
    rt_components_init                       0x0801d459   Thumb Code    20  components.o(.text)
    atoi                                     0x0801d479   Thumb Code    26  atoi.o(.text)
    strlen                                   0x0801d493   Thumb Code    62  strlen.o(.text)
    strncmp                                  0x0801d4d1   Thumb Code   150  strncmp.o(.text)
    strcat                                   0x0801d567   Thumb Code    24  strcat.o(.text)
    __aeabi_memcpy                           0x0801d57f   Thumb Code     0  rt_memcpy_v6.o(.text)
    __rt_memcpy                              0x0801d57f   Thumb Code   138  rt_memcpy_v6.o(.text)
    _memcpy_lastbytes                        0x0801d5e5   Thumb Code     0  rt_memcpy_v6.o(.text)
    __aeabi_memcpy4                          0x0801d609   Thumb Code     0  rt_memcpy_w.o(.text)
    __aeabi_memcpy8                          0x0801d609   Thumb Code     0  rt_memcpy_w.o(.text)
    __rt_memcpy_w                            0x0801d609   Thumb Code   100  rt_memcpy_w.o(.text)
    _memcpy_lastbytes_aligned                0x0801d651   Thumb Code     0  rt_memcpy_w.o(.text)
    __aeabi_memclr                           0x0801d66d   Thumb Code     0  rt_memclr.o(.text)
    __rt_memclr                              0x0801d66d   Thumb Code    68  rt_memclr.o(.text)
    _memset                                  0x0801d671   Thumb Code     0  rt_memclr.o(.text)
    __aeabi_memclr4                          0x0801d6b1   Thumb Code     0  rt_memclr_w.o(.text)
    __aeabi_memclr8                          0x0801d6b1   Thumb Code     0  rt_memclr_w.o(.text)
    __rt_memclr_w                            0x0801d6b1   Thumb Code    78  rt_memclr_w.o(.text)
    _memset_w                                0x0801d6b5   Thumb Code     0  rt_memclr_w.o(.text)
    strncpy                                  0x0801d6ff   Thumb Code    86  strncpy.o(.text)
    ctime                                    0x0801d755   Thumb Code    14  ctime.o(.text)
    localtime                                0x0801d765   Thumb Code     6  localtime.o(.text)
    mktime                                   0x0801d7af   Thumb Code   352  mktime.o(.text)
    __use_two_region_memory                  0x0801d919   Thumb Code     2  heapauxi.o(.text)
    __rt_heap_escrow$2region                 0x0801d91b   Thumb Code     2  heapauxi.o(.text)
    __rt_heap_expand$2region                 0x0801d91d   Thumb Code     2  heapauxi.o(.text)
    __aeabi_errno_addr                       0x0801d921   Thumb Code     8  rt_errno_addr_intlibspace.o(.text)
    __errno$intlibspace                      0x0801d921   Thumb Code     0  rt_errno_addr_intlibspace.o(.text)
    __rt_errno_addr$intlibspace              0x0801d921   Thumb Code     0  rt_errno_addr_intlibspace.o(.text)
    strtol                                   0x0801d929   Thumb Code   112  strtol.o(.text)
    asctime                                  0x0801d999   Thumb Code     6  asctime.o(.text)
    _localtime_r                             0x0801d9a5   Thumb Code   178  localtime_internal.o(.text)
    _n$localtime_r                           0x0801d9a5   Thumb Code     0  localtime_internal.o(.text)
    __user_libspace                          0x0801da5d   Thumb Code     8  libspace.o(.text)
    __user_perproc_libspace                  0x0801da5d   Thumb Code     0  libspace.o(.text)
    __user_perthread_libspace                0x0801da5d   Thumb Code     0  libspace.o(.text)
    __rt_ctype_table                         0x0801da65   Thumb Code    16  rt_ctype_table.o(.text)
    _strtoul                                 0x0801da75   Thumb Code   158  _strtoul.o(.text)
    _asctime_r                               0x0801db15   Thumb Code    74  asctime_internal.o(.text)
    _n$asctime_r                             0x0801db15   Thumb Code     0  asctime_internal.o(.text)
    __user_setup_stackheap                   0x0801db7d   Thumb Code    74  sys_stackheap_outer.o(.text)
    __rt_locale                              0x0801dbc9   Thumb Code     8  rt_locale_intlibspace.o(.text)
    sprintf                                  0x0801dbd1   Thumb Code    38  sprintf.o(.text)
    _chval                                   0x0801dbfd   Thumb Code    28  _chval.o(.text)
    exit                                     0x0801dc19   Thumb Code    18  exit.o(.text)
    _printf_pre_padding                      0x0801dc2b   Thumb Code    44  _printf_pad.o(.text)
    _printf_post_padding                     0x0801dc57   Thumb Code    34  _printf_pad.o(.text)
    _printf_truncate_signed                  0x0801dc79   Thumb Code    18  _printf_truncate.o(.text)
    _printf_truncate_unsigned                0x0801dc8b   Thumb Code    18  _printf_truncate.o(.text)
    _printf_str                              0x0801dc9d   Thumb Code    82  _printf_str.o(.text)
    _printf_int_dec                          0x0801dcf1   Thumb Code   104  _printf_dec.o(.text)
    _printf_charcount                        0x0801dd69   Thumb Code    40  _printf_charcount.o(.text)
    _printf_char_common                      0x0801dd9b   Thumb Code    32  _printf_char_common.o(.text)
    _sputc                                   0x0801ddc1   Thumb Code    10  _sputc.o(.text)
    _printf_wctomb                           0x0801ddcd   Thumb Code   182  _printf_wctomb.o(.text)
    _printf_longlong_dec                     0x0801de89   Thumb Code   108  _printf_longlong_dec.o(.text)
    _printf_longlong_oct                     0x0801df05   Thumb Code    68  _printf_oct_int_ll.o(.text)
    _printf_int_oct                          0x0801df49   Thumb Code    24  _printf_oct_int_ll.o(.text)
    _printf_ll_oct                           0x0801df61   Thumb Code    12  _printf_oct_int_ll.o(.text)
    _printf_longlong_hex                     0x0801df75   Thumb Code    86  _printf_hex_int_ll_ptr.o(.text)
    _printf_int_hex                          0x0801dfcb   Thumb Code    28  _printf_hex_int_ll_ptr.o(.text)
    _printf_ll_hex                           0x0801dfe7   Thumb Code    12  _printf_hex_int_ll_ptr.o(.text)
    _printf_hex_ptr                          0x0801dff3   Thumb Code    18  _printf_hex_int_ll_ptr.o(.text)
    __printf                                 0x0801e009   Thumb Code   388  __printf_flags_ss_wp.o(.text)
    _ll_udiv10                               0x0801e191   Thumb Code   138  lludiv10.o(.text)
    _printf_int_common                       0x0801e21b   Thumb Code   178  _printf_intcommon.o(.text)
    __lib_sel_fp_printf                      0x0801e2cd   Thumb Code     2  _printf_fp_dec.o(.text)
    _printf_fp_dec_real                      0x0801e47b   Thumb Code   620  _printf_fp_dec.o(.text)
    _printf_fp_hex_real                      0x0801e6e9   Thumb Code   754  _printf_fp_hex.o(.text)
    _printf_cs_common                        0x0801e9e5   Thumb Code    20  _printf_char.o(.text)
    _printf_char                             0x0801e9f9   Thumb Code    16  _printf_char.o(.text)
    _printf_string                           0x0801ea09   Thumb Code     8  _printf_char.o(.text)
    _printf_lcs_common                       0x0801ea11   Thumb Code    20  _printf_wchar.o(.text)
    _printf_wchar                            0x0801ea25   Thumb Code    16  _printf_wchar.o(.text)
    _printf_wstring                          0x0801ea35   Thumb Code     8  _printf_wchar.o(.text)
    _wcrtomb                                 0x0801ea3d   Thumb Code    64  _wcrtomb.o(.text)
    _sys_exit                                0x0801ea7d   Thumb Code     8  sys_exit.o(.text)
    _printf_fp_infnan                        0x0801ea89   Thumb Code   112  _printf_fp_infnan.o(.text)
    _btod_etento                             0x0801eb09   Thumb Code   216  bigflt0.o(.text)
    __I$use$semihosting                      0x0801ebe5   Thumb Code     0  use_no_semi.o(.text)
    __use_no_semihosting_swi                 0x0801ebe5   Thumb Code     2  use_no_semi.o(.text)
    __semihosting_library_function           0x0801ebe7   Thumb Code     0  indicate_semi.o(.text)
    _btod_d2e                                0x0801ebe7   Thumb Code    62  btod.o(CL$$btod_d2e)
    _d2e_denorm_low                          0x0801ec25   Thumb Code    70  btod.o(CL$$btod_d2e_denorm_low)
    _d2e_norm_op1                            0x0801ec6b   Thumb Code    96  btod.o(CL$$btod_d2e_norm_op1)
    __btod_div_common                        0x0801eccb   Thumb Code   696  btod.o(CL$$btod_div_common)
    _e2e                                     0x0801f003   Thumb Code   198  btod.o(CL$$btod_e2e)
    _btod_ediv                               0x0801f0c9   Thumb Code    40  btod.o(CL$$btod_ediv)
    _btod_emul                               0x0801f0f1   Thumb Code    40  btod.o(CL$$btod_emul)
    __btod_mult_common                       0x0801f119   Thumb Code   580  btod.o(CL$$btod_mult_common)
    __ARM_fpclassify                         0x0801f35d   Thumb Code    48  fpclassify.o(i.__ARM_fpclassify)
    _is_digit                                0x0801f38d   Thumb Code    14  __printf_wp.o(i._is_digit)
    _get_lc_ctype                            0x0801f39d   Thumb Code    44  lc_ctype_c.o(locale$$code)
    _get_lc_time                             0x0801f3c9   Thumb Code    44  lc_time_c.o(locale$$code)
    _get_lc_numeric                          0x0801f3f5   Thumb Code    44  lc_numeric_c.o(locale$$code)
    _fp_init                                 0x0801f421   Thumb Code    10  fpinit.o(x$fpl$fpinit)
    __fplib_config_fpu_vfp                   0x0801f429   Thumb Code     0  fpinit.o(x$fpl$fpinit)
    __fplib_config_pureend_doubles           0x0801f429   Thumb Code     0  fpinit.o(x$fpl$fpinit)
    _printf_fp_dec                           0x0801f42b   Thumb Code     4  printf1.o(x$fpl$printf1)
    _printf_fp_hex                           0x0801f42f   Thumb Code     4  printf2.o(x$fpl$printf2)
    __I$use$fp                               0x0801f432   Number         0  usenofp.o(x$fpl$usenofp)
    mount_table                              0x0801f434   Data          60  mnttable.o(.constdata)
    __fsym_reset_name                        0x0801f470   Data           6  board.o(.constdata)
    __fsym_reset_desc                        0x0801f476   Data           6  board.o(.constdata)
    __rtmsym_rt_tick_get_name                0x0801f50c   Data          12  clock.o(.constdata)
    __rtmsym_rt_tick_from_millisecond_name   0x0801f518   Data          25  clock.o(.constdata)
    __rtmsym_rt_device_register_name         0x0801f531   Data          19  device.o(.constdata)
    __rtmsym_rt_device_unregister_name       0x0801f544   Data          21  device.o(.constdata)
    __rtmsym_rt_device_find_name             0x0801f559   Data          15  device.o(.constdata)
    __rtmsym_rt_device_open_name             0x0801f568   Data          15  device.o(.constdata)
    __rtmsym_rt_device_close_name            0x0801f577   Data          16  device.o(.constdata)
    __rtmsym_rt_device_read_name             0x0801f587   Data          15  device.o(.constdata)
    __rtmsym_rt_device_write_name            0x0801f596   Data          16  device.o(.constdata)
    __rtmsym_rt_device_control_name          0x0801f5a6   Data          18  device.o(.constdata)
    __rtmsym_rt_device_set_rx_indicate_name  0x0801f5b8   Data          26  device.o(.constdata)
    __rtmsym_rt_device_set_tx_complete_name  0x0801f5d2   Data          26  device.o(.constdata)
    __rtmsym_rt_sem_init_name                0x0801f6aa   Data          12  ipc.o(.constdata)
    __rtmsym_rt_sem_detach_name              0x0801f6b6   Data          14  ipc.o(.constdata)
    __rtmsym_rt_sem_create_name              0x0801f6c4   Data          14  ipc.o(.constdata)
    __rtmsym_rt_sem_delete_name              0x0801f6d2   Data          14  ipc.o(.constdata)
    __rtmsym_rt_sem_take_name                0x0801f6e0   Data          12  ipc.o(.constdata)
    __rtmsym_rt_sem_trytake_name             0x0801f6ec   Data          15  ipc.o(.constdata)
    __rtmsym_rt_sem_release_name             0x0801f6fb   Data          15  ipc.o(.constdata)
    __rtmsym_rt_sem_control_name             0x0801f70a   Data          15  ipc.o(.constdata)
    __rtmsym_rt_mutex_init_name              0x0801f719   Data          14  ipc.o(.constdata)
    __rtmsym_rt_mutex_detach_name            0x0801f727   Data          16  ipc.o(.constdata)
    __rtmsym_rt_mutex_create_name            0x0801f737   Data          16  ipc.o(.constdata)
    __rtmsym_rt_mutex_delete_name            0x0801f747   Data          16  ipc.o(.constdata)
    __rtmsym_rt_mutex_take_name              0x0801f757   Data          14  ipc.o(.constdata)
    __rtmsym_rt_mutex_release_name           0x0801f765   Data          17  ipc.o(.constdata)
    __rtmsym_rt_mutex_control_name           0x0801f776   Data          17  ipc.o(.constdata)
    __rtmsym_rt_event_init_name              0x0801f787   Data          14  ipc.o(.constdata)
    __rtmsym_rt_event_detach_name            0x0801f795   Data          16  ipc.o(.constdata)
    __rtmsym_rt_event_create_name            0x0801f7a5   Data          16  ipc.o(.constdata)
    __rtmsym_rt_event_delete_name            0x0801f7b5   Data          16  ipc.o(.constdata)
    __rtmsym_rt_event_send_name              0x0801f7c5   Data          14  ipc.o(.constdata)
    __rtmsym_rt_event_recv_name              0x0801f7d3   Data          14  ipc.o(.constdata)
    __rtmsym_rt_event_control_name           0x0801f7e1   Data          17  ipc.o(.constdata)
    __rtmsym_rt_mb_init_name                 0x0801f7f2   Data          11  ipc.o(.constdata)
    __rtmsym_rt_mb_detach_name               0x0801f7fd   Data          13  ipc.o(.constdata)
    __rtmsym_rt_mb_create_name               0x0801f80a   Data          13  ipc.o(.constdata)
    __rtmsym_rt_mb_delete_name               0x0801f817   Data          13  ipc.o(.constdata)
    __rtmsym_rt_mb_send_wait_name            0x0801f824   Data          16  ipc.o(.constdata)
    __rtmsym_rt_mb_send_name                 0x0801f834   Data          11  ipc.o(.constdata)
    __rtmsym_rt_mb_recv_name                 0x0801f83f   Data          11  ipc.o(.constdata)
    __rtmsym_rt_mb_control_name              0x0801f84a   Data          14  ipc.o(.constdata)
    __rtmsym_rt_mq_init_name                 0x0801f858   Data          11  ipc.o(.constdata)
    __rtmsym_rt_mq_detach_name               0x0801f863   Data          13  ipc.o(.constdata)
    __rtmsym_rt_mq_create_name               0x0801f870   Data          13  ipc.o(.constdata)
    __rtmsym_rt_mq_delete_name               0x0801f87d   Data          13  ipc.o(.constdata)
    __rtmsym_rt_mq_send_name                 0x0801f88a   Data          11  ipc.o(.constdata)
    __rtmsym_rt_mq_urgent_name               0x0801f895   Data          13  ipc.o(.constdata)
    __rtmsym_rt_mq_recv_name                 0x0801f8a2   Data          11  ipc.o(.constdata)
    __rtmsym_rt_mq_control_name              0x0801f8ad   Data          14  ipc.o(.constdata)
    __rtmsym_rt_interrupt_enter_name         0x0801fa81   Data          19  irq.o(.constdata)
    __rtmsym_rt_interrupt_leave_name         0x0801fa94   Data          19  irq.o(.constdata)
    __rtmsym_rt_interrupt_get_nest_name      0x0801faa7   Data          22  irq.o(.constdata)
    __rtmsym_rt_hw_interrupt_disable_name    0x0801fabd   Data          24  irq.o(.constdata)
    __rtmsym_rt_hw_interrupt_enable_name     0x0801fad5   Data          23  irq.o(.constdata)
    __rtmsym_rt_get_errno_name               0x0801faec   Data          13  kservice.o(.constdata)
    __rtmsym_rt_set_errno_name               0x0801faf9   Data          13  kservice.o(.constdata)
    __rtmsym__rt_errno_name                  0x0801fb06   Data          10  kservice.o(.constdata)
    __rtmsym_rt_memset_name                  0x0801fb10   Data          10  kservice.o(.constdata)
    __rtmsym_rt_memcpy_name                  0x0801fb1a   Data          10  kservice.o(.constdata)
    __rtmsym_rt_memmove_name                 0x0801fb24   Data          11  kservice.o(.constdata)
    __rtmsym_rt_memcmp_name                  0x0801fb2f   Data          10  kservice.o(.constdata)
    __rtmsym_rt_strstr_name                  0x0801fb39   Data          10  kservice.o(.constdata)
    __rtmsym_rt_strcasecmp_name              0x0801fb43   Data          14  kservice.o(.constdata)
    __rtmsym_rt_strncpy_name                 0x0801fb51   Data          11  kservice.o(.constdata)
    __rtmsym_rt_strncmp_name                 0x0801fb5c   Data          11  kservice.o(.constdata)
    __rtmsym_rt_strcmp_name                  0x0801fb67   Data          10  kservice.o(.constdata)
    __rtmsym_rt_strlen_name                  0x0801fb71   Data          10  kservice.o(.constdata)
    __rtmsym_rt_strdup_name                  0x0801fb7b   Data          10  kservice.o(.constdata)
    __rtmsym_rt_show_version_name            0x0801fb85   Data          16  kservice.o(.constdata)
    __rtmsym_rt_vsnprintf_name               0x0801fb95   Data          13  kservice.o(.constdata)
    __rtmsym_rt_snprintf_name                0x0801fba2   Data          12  kservice.o(.constdata)
    __rtmsym_rt_vsprintf_name                0x0801fbae   Data          12  kservice.o(.constdata)
    __rtmsym_rt_sprintf_name                 0x0801fbba   Data          11  kservice.o(.constdata)
    __rtmsym_rt_console_get_device_name      0x0801fbc5   Data          22  kservice.o(.constdata)
    __rtmsym_rt_console_set_device_name      0x0801fbdb   Data          22  kservice.o(.constdata)
    __rtmsym_rt_hw_console_output_name       0x0801fbf1   Data          21  kservice.o(.constdata)
    __rtmsym_rt_kprintf_name                 0x0801fc06   Data          11  kservice.o(.constdata)
    __rtmsym_rt_malloc_align_name            0x0801fc11   Data          16  kservice.o(.constdata)
    __rtmsym_rt_free_align_name              0x0801fc21   Data          14  kservice.o(.constdata)
    __lowest_bit_bitmap                      0x0801fc2f   Data         256  kservice.o(.constdata)
    __rtmsym_rt_malloc_name                  0x0801fd51   Data          10  mem.o(.constdata)
    __rtmsym_rt_realloc_name                 0x0801fd5b   Data          11  mem.o(.constdata)
    __rtmsym_rt_calloc_name                  0x0801fd66   Data          10  mem.o(.constdata)
    __rtmsym_rt_free_name                    0x0801fd70   Data           8  mem.o(.constdata)
    __fsym_list_mem_name                     0x0801fd78   Data           9  mem.o(.constdata)
    __fsym_list_mem_desc                     0x0801fd81   Data          30  mem.o(.constdata)
    __rtmsym_rt_memheap_init_name            0x0801fde5   Data          16  memheap.o(.constdata)
    __rtmsym_rt_memheap_detach_name          0x0801fdf5   Data          18  memheap.o(.constdata)
    __rtmsym_rt_memheap_alloc_name           0x0801fe07   Data          17  memheap.o(.constdata)
    __rtmsym_rt_memheap_realloc_name         0x0801fe18   Data          19  memheap.o(.constdata)
    __rtmsym_rt_memheap_free_name            0x0801fe2b   Data          16  memheap.o(.constdata)
    __rtmsym_rt_mp_init_name                 0x0801fe91   Data          11  mempool.o(.constdata)
    __rtmsym_rt_mp_detach_name               0x0801fe9c   Data          13  mempool.o(.constdata)
    __rtmsym_rt_mp_create_name               0x0801fea9   Data          13  mempool.o(.constdata)
    __rtmsym_rt_mp_delete_name               0x0801feb6   Data          13  mempool.o(.constdata)
    __rtmsym_rt_mp_alloc_name                0x0801fec3   Data          12  mempool.o(.constdata)
    __rtmsym_rt_mp_free_name                 0x0801fecf   Data          11  mempool.o(.constdata)
    __fsym_exec_name                         0x0801ff18   Data           5  module.o(.constdata)
    __fsym_exec_desc                         0x0801ff1d   Data          24  module.o(.constdata)
    __rtmsym_rt_object_get_information_name  0x0801ffb9   Data          26  object.o(.constdata)
    __rtmsym_rt_thread_init_name             0x0802007f   Data          15  thread.o(.constdata)
    __rtmsym_rt_thread_self_name             0x0802008e   Data          15  thread.o(.constdata)
    __rtmsym_rt_thread_startup_name          0x0802009d   Data          18  thread.o(.constdata)
    __rtmsym_rt_thread_detach_name           0x080200af   Data          17  thread.o(.constdata)
    __rtmsym_rt_thread_create_name           0x080200c0   Data          17  thread.o(.constdata)
    __rtmsym_rt_thread_delete_name           0x080200d1   Data          17  thread.o(.constdata)
    __rtmsym_rt_thread_yield_name            0x080200e2   Data          16  thread.o(.constdata)
    __rtmsym_rt_thread_delay_name            0x080200f2   Data          16  thread.o(.constdata)
    __rtmsym_rt_thread_control_name          0x08020102   Data          18  thread.o(.constdata)
    __rtmsym_rt_thread_suspend_name          0x08020114   Data          18  thread.o(.constdata)
    __rtmsym_rt_thread_resume_name           0x08020126   Data          17  thread.o(.constdata)
    __rtmsym_rt_thread_timeout_name          0x08020137   Data          18  thread.o(.constdata)
    __rtmsym_rt_thread_find_name             0x08020149   Data          15  thread.o(.constdata)
    __rtmsym_rt_timer_init_name              0x08020202   Data          14  timer.o(.constdata)
    __rtmsym_rt_timer_detach_name            0x08020210   Data          16  timer.o(.constdata)
    __rtmsym_rt_timer_create_name            0x08020220   Data          16  timer.o(.constdata)
    __rtmsym_rt_timer_delete_name            0x08020230   Data          16  timer.o(.constdata)
    __rtmsym_rt_timer_start_name             0x08020240   Data          15  timer.o(.constdata)
    __rtmsym_rt_timer_stop_name              0x0802024f   Data          14  timer.o(.constdata)
    __rtmsym_rt_timer_control_name           0x0802025d   Data          17  timer.o(.constdata)
    __fsym_mkfs_name                         0x08020300   Data           5  dfs_fs.o(.constdata)
    __fsym_mkfs_desc                         0x08020305   Data          19  dfs_fs.o(.constdata)
    __fsym_df_name                           0x08020318   Data           3  dfs_fs.o(.constdata)
    __fsym_df_desc                           0x0802031b   Data          14  dfs_fs.o(.constdata)
    __fsym_ls_name                           0x08020346   Data           3  dfs_file.o(.constdata)
    __fsym_ls_desc                           0x08020349   Data          24  dfs_file.o(.constdata)
    __fsym_rm_name                           0x08020361   Data           3  dfs_file.o(.constdata)
    __fsym_rm_desc                           0x08020364   Data          28  dfs_file.o(.constdata)
    __fsym_cat_name                          0x08020380   Data           4  dfs_file.o(.constdata)
    __fsym_cat_desc                          0x08020384   Data          11  dfs_file.o(.constdata)
    __fsym_copy_name                         0x0802038f   Data           5  dfs_file.o(.constdata)
    __fsym_copy_desc                         0x08020394   Data          37  dfs_file.o(.constdata)
    __rtmsym_open_name                       0x080203b9   Data           5  dfs_posix.o(.constdata)
    __rtmsym_close_name                      0x080203be   Data           6  dfs_posix.o(.constdata)
    __rtmsym_read_name                       0x080203c4   Data           5  dfs_posix.o(.constdata)
    __rtmsym_write_name                      0x080203c9   Data           6  dfs_posix.o(.constdata)
    __rtmsym_lseek_name                      0x080203cf   Data           6  dfs_posix.o(.constdata)
    __rtmsym_rename_name                     0x080203d5   Data           7  dfs_posix.o(.constdata)
    __rtmsym_unlink_name                     0x080203dc   Data           7  dfs_posix.o(.constdata)
    __rtmsym_stat_name                       0x080203e3   Data           5  dfs_posix.o(.constdata)
    __rtmsym_fstat_name                      0x080203e8   Data           6  dfs_posix.o(.constdata)
    __rtmsym_statfs_name                     0x080203ee   Data           7  dfs_posix.o(.constdata)
    __rtmsym_mkdir_name                      0x080203f5   Data           6  dfs_posix.o(.constdata)
    __fsym_mkdir_name                        0x080203fb   Data           6  dfs_posix.o(.constdata)
    __fsym_mkdir_desc                        0x08020401   Data          19  dfs_posix.o(.constdata)
    __rtmsym_rmdir_name                      0x08020414   Data           6  dfs_posix.o(.constdata)
    __rtmsym_opendir_name                    0x0802041a   Data           8  dfs_posix.o(.constdata)
    __rtmsym_readdir_name                    0x08020422   Data           8  dfs_posix.o(.constdata)
    __rtmsym_telldir_name                    0x0802042a   Data           8  dfs_posix.o(.constdata)
    __rtmsym_seekdir_name                    0x08020432   Data           8  dfs_posix.o(.constdata)
    __rtmsym_rewinddir_name                  0x0802043a   Data          10  dfs_posix.o(.constdata)
    __rtmsym_closedir_name                   0x08020444   Data           9  dfs_posix.o(.constdata)
    __rtmsym_chdir_name                      0x0802044d   Data           6  dfs_posix.o(.constdata)
    __fsym_cd_name                           0x08020453   Data           3  dfs_posix.o(.constdata)
    __fsym_cd_desc                           0x08020456   Data          33  dfs_posix.o(.constdata)
    __rtmsym_getcwd_name                     0x08020477   Data           7  dfs_posix.o(.constdata)
    __fsym_list_date_name                    0x080209de   Data          10  rtc.o(.constdata)
    __fsym_list_date_desc                    0x080209e8   Data          20  rtc.o(.constdata)
    __fsym_set_date_name                     0x080209fc   Data           9  rtc.o(.constdata)
    __fsym_set_date_desc                     0x08020a05   Data          35  rtc.o(.constdata)
    __fsym_set_time_name                     0x08020a28   Data           9  rtc.o(.constdata)
    __fsym_set_time_desc                     0x08020a31   Data          34  rtc.o(.constdata)
    __rtmsym_rt_data_queue_init_name         0x08020c55   Data          19  dataqueue.o(.constdata)
    __rtmsym_rt_data_queue_push_name         0x08020c68   Data          19  dataqueue.o(.constdata)
    __rtmsym_rt_data_queue_pop_name          0x08020c7b   Data          18  dataqueue.o(.constdata)
    __rtmsym_rt_data_queue_peak_name         0x08020c8d   Data          19  dataqueue.o(.constdata)
    __rtmsym_rt_data_queue_reset_name        0x08020ca0   Data          20  dataqueue.o(.constdata)
    __rtmsym_rt_pipe_init_name               0x08020cff   Data          13  pipe.o(.constdata)
    __rtmsym_rt_pipe_detach_name             0x08020d0c   Data          15  pipe.o(.constdata)
    __rtmsym_rt_pipe_create_name             0x08020d1b   Data          15  pipe.o(.constdata)
    __rtmsym_rt_pipe_destroy_name            0x08020d2a   Data          16  pipe.o(.constdata)
    __rtmsym_rt_portal_init_name             0x08020d90   Data          15  portal.o(.constdata)
    __rtmsym_rt_portal_detach_name           0x08020d9f   Data          17  portal.o(.constdata)
    __rtmsym_rt_portal_create_name           0x08020db0   Data          17  portal.o(.constdata)
    __rtmsym_rt_portal_destroy_name          0x08020dc1   Data          18  portal.o(.constdata)
    __rtmsym_rt_ringbuffer_init_name         0x08020e32   Data          19  ringbuffer.o(.constdata)
    __rtmsym_rt_ringbuffer_put_name          0x08020e45   Data          18  ringbuffer.o(.constdata)
    __rtmsym_rt_ringbuffer_put_force_name    0x08020e57   Data          24  ringbuffer.o(.constdata)
    __rtmsym_rt_ringbuffer_get_name          0x08020e6f   Data          18  ringbuffer.o(.constdata)
    __rtmsym_rt_ringbuffer_putchar_name      0x08020e81   Data          22  ringbuffer.o(.constdata)
    __rtmsym_rt_ringbuffer_putchar_force_name 0x08020e97   Data          28  ringbuffer.o(.constdata)
    __rtmsym_rt_ringbuffer_getchar_name      0x08020eb3   Data          22  ringbuffer.o(.constdata)
    __fsym_hello_name                        0x08020f60   Data           6  cmd.o(.constdata)
    __fsym_hello_desc                        0x08020f66   Data          16  cmd.o(.constdata)
    __fsym_version_name                      0x08020f76   Data           8  cmd.o(.constdata)
    __fsym_version_desc                      0x08020f7e   Data          35  cmd.o(.constdata)
    __fsym_list_thread_name                  0x08020fa1   Data          12  cmd.o(.constdata)
    __fsym_list_thread_desc                  0x08020fad   Data          12  cmd.o(.constdata)
    __fsym_list_sem_name                     0x08020fb9   Data           9  cmd.o(.constdata)
    __fsym_list_sem_desc                     0x08020fc2   Data          25  cmd.o(.constdata)
    __fsym_list_event_name                   0x08020fdb   Data          11  cmd.o(.constdata)
    __fsym_list_event_desc                   0x08020fe6   Data          21  cmd.o(.constdata)
    __fsym_list_mutex_name                   0x08020ffb   Data          11  cmd.o(.constdata)
    __fsym_list_mutex_desc                   0x08021006   Data          21  cmd.o(.constdata)
    __fsym_list_mailbox_name                 0x0802101b   Data          13  cmd.o(.constdata)
    __fsym_list_mailbox_desc                 0x08021028   Data          24  cmd.o(.constdata)
    __fsym_list_msgqueue_name                0x08021040   Data          14  cmd.o(.constdata)
    __fsym_list_msgqueue_desc                0x0802104e   Data          29  cmd.o(.constdata)
    __fsym_list_memheap_name                 0x0802106b   Data          13  cmd.o(.constdata)
    __fsym_list_memheap_desc                 0x08021078   Data          27  cmd.o(.constdata)
    __fsym_list_mempool_name                 0x08021093   Data          13  cmd.o(.constdata)
    __fsym_list_mempool_desc                 0x080210a0   Data          27  cmd.o(.constdata)
    __fsym_list_timer_name                   0x080210bb   Data          11  cmd.o(.constdata)
    __fsym_list_timer_desc                   0x080210c6   Data          21  cmd.o(.constdata)
    __fsym_list_device_name                  0x080210db   Data          12  cmd.o(.constdata)
    __fsym_list_device_desc                  0x080210e7   Data          22  cmd.o(.constdata)
    __fsym_list_module_name                  0x080210fd   Data          12  cmd.o(.constdata)
    __fsym_list_module_desc                  0x08021109   Data          22  cmd.o(.constdata)
    __fsym_list_mod_detail_name              0x0802111f   Data          16  cmd.o(.constdata)
    __fsym_list_mod_detail_desc              0x0802112f   Data          30  cmd.o(.constdata)
    __fsym_list_name                         0x0802114d   Data           5  cmd.o(.constdata)
    __fsym_list_desc                         0x08021152   Data          26  cmd.o(.constdata)
    __vsym_dummy_name                        0x0802116c   Data           6  cmd.o(.constdata)
    __vsym_dummy_desc                        0x08021172   Data          25  cmd.o(.constdata)
    op_table                                 0x080211d8   Data         196  finsh_ops.o(.constdata)
    _monlen                                  0x08021329   Data          12  _monlen.o(.constdata)
    __rt_init_rti_start                      0x08021ad0   Data           4  components.o(.rti_fn.0)
    __rt_init_rt_hw_spi2_init                0x08021ad4   Data           4  platform.o(.rti_fn.1)
    __rt_init_rt_hw_usart_init               0x08021ad8   Data           4  usart.o(.rti_fn.1)
    __rt_init_rti_board_end                  0x08021adc   Data           4  components.o(.rti_fn.1.post)
    __rt_init_rt_hw_rtc_init                 0x08021ae0   Data           4  stm32f4_rtc.o(.rti_fn.2)
    __rt_init_rt_system_module_init          0x08021ae4   Data           4  module.o(.rti_fn.3)
    __rt_init_dfs_init                       0x08021ae8   Data           4  dfs.o(.rti_fn.3)
    __rt_init_finsh_system_init              0x08021aec   Data           4  shell.o(.rti_fn.3)
    __rt_init_elm_init                       0x08021af0   Data           4  dfs_elm.o(.rti_fn.4)
    __rt_init_devfs_init                     0x08021af4   Data           4  devfs.o(.rti_fn.4)
    __rt_init_dfs_mount_table                0x08021af8   Data           4  dfs_fs.o(.rti_fn.5)
    __rt_init_ff_convert_init                0x08021afc   Data           4  ccfile.o(.rti_fn.6)
    __rt_init_rti_end                        0x08021b00   Data           4  components.o(.rti_fn.7)
    FSymTab$$Base                            0x08021b04   Number         0  board.o(FSymTab)
    __fsym_reset                             0x08021b04   Data          12  board.o(FSymTab)
    __fsym_list_mem                          0x08021b10   Data          12  mem.o(FSymTab)
    __fsym_exec                              0x08021b1c   Data          12  module.o(FSymTab)
    __fsym_mkfs                              0x08021b28   Data          12  dfs_fs.o(FSymTab)
    __fsym_df                                0x08021b34   Data          12  dfs_fs.o(FSymTab)
    __fsym_ls                                0x08021b40   Data          12  dfs_file.o(FSymTab)
    __fsym_rm                                0x08021b4c   Data          12  dfs_file.o(FSymTab)
    __fsym_cat                               0x08021b58   Data          12  dfs_file.o(FSymTab)
    __fsym_copy                              0x08021b64   Data          12  dfs_file.o(FSymTab)
    __fsym_mkdir                             0x08021b70   Data          12  dfs_posix.o(FSymTab)
    __fsym_cd                                0x08021b7c   Data          12  dfs_posix.o(FSymTab)
    __fsym_list_date                         0x08021b88   Data          12  rtc.o(FSymTab)
    __fsym_set_date                          0x08021b94   Data          12  rtc.o(FSymTab)
    __fsym_set_time                          0x08021ba0   Data          12  rtc.o(FSymTab)
    __fsym_hello                             0x08021bac   Data          12  cmd.o(FSymTab)
    __fsym_version                           0x08021bb8   Data          12  cmd.o(FSymTab)
    __fsym_list_thread                       0x08021bc4   Data          12  cmd.o(FSymTab)
    __fsym_list_sem                          0x08021bd0   Data          12  cmd.o(FSymTab)
    __fsym_list_event                        0x08021bdc   Data          12  cmd.o(FSymTab)
    __fsym_list_mutex                        0x08021be8   Data          12  cmd.o(FSymTab)
    __fsym_list_mailbox                      0x08021bf4   Data          12  cmd.o(FSymTab)
    __fsym_list_msgqueue                     0x08021c00   Data          12  cmd.o(FSymTab)
    __fsym_list_memheap                      0x08021c0c   Data          12  cmd.o(FSymTab)
    __fsym_list_mempool                      0x08021c18   Data          12  cmd.o(FSymTab)
    __fsym_list_timer                        0x08021c24   Data          12  cmd.o(FSymTab)
    __fsym_list_device                       0x08021c30   Data          12  cmd.o(FSymTab)
    __fsym_list_module                       0x08021c3c   Data          12  cmd.o(FSymTab)
    __fsym_list_mod_detail                   0x08021c48   Data          12  cmd.o(FSymTab)
    __fsym_list                              0x08021c54   Data          12  cmd.o(FSymTab)
    FSymTab$$Limit                           0x08021c60   Number         0  cmd.o(FSymTab)
    RTMSymTab$$Base                          0x08021c60   Number         0  clock.o(RTMSymTab)
    __rtmsym_rt_tick_get                     0x08021c60   Data           8  clock.o(RTMSymTab)
    __rtmsym_rt_tick_from_millisecond        0x08021c68   Data           8  clock.o(RTMSymTab)
    __rtmsym_rt_device_register              0x08021c70   Data           8  device.o(RTMSymTab)
    __rtmsym_rt_device_unregister            0x08021c78   Data           8  device.o(RTMSymTab)
    __rtmsym_rt_device_find                  0x08021c80   Data           8  device.o(RTMSymTab)
    __rtmsym_rt_device_open                  0x08021c88   Data           8  device.o(RTMSymTab)
    __rtmsym_rt_device_close                 0x08021c90   Data           8  device.o(RTMSymTab)
    __rtmsym_rt_device_read                  0x08021c98   Data           8  device.o(RTMSymTab)
    __rtmsym_rt_device_write                 0x08021ca0   Data           8  device.o(RTMSymTab)
    __rtmsym_rt_device_control               0x08021ca8   Data           8  device.o(RTMSymTab)
    __rtmsym_rt_device_set_rx_indicate       0x08021cb0   Data           8  device.o(RTMSymTab)
    __rtmsym_rt_device_set_tx_complete       0x08021cb8   Data           8  device.o(RTMSymTab)
    __rtmsym_rt_sem_init                     0x08021cc0   Data           8  ipc.o(RTMSymTab)
    __rtmsym_rt_sem_detach                   0x08021cc8   Data           8  ipc.o(RTMSymTab)
    __rtmsym_rt_sem_create                   0x08021cd0   Data           8  ipc.o(RTMSymTab)
    __rtmsym_rt_sem_delete                   0x08021cd8   Data           8  ipc.o(RTMSymTab)
    __rtmsym_rt_sem_take                     0x08021ce0   Data           8  ipc.o(RTMSymTab)
    __rtmsym_rt_sem_trytake                  0x08021ce8   Data           8  ipc.o(RTMSymTab)
    __rtmsym_rt_sem_release                  0x08021cf0   Data           8  ipc.o(RTMSymTab)
    __rtmsym_rt_sem_control                  0x08021cf8   Data           8  ipc.o(RTMSymTab)
    __rtmsym_rt_mutex_init                   0x08021d00   Data           8  ipc.o(RTMSymTab)
    __rtmsym_rt_mutex_detach                 0x08021d08   Data           8  ipc.o(RTMSymTab)
    __rtmsym_rt_mutex_create                 0x08021d10   Data           8  ipc.o(RTMSymTab)
    __rtmsym_rt_mutex_delete                 0x08021d18   Data           8  ipc.o(RTMSymTab)
    __rtmsym_rt_mutex_take                   0x08021d20   Data           8  ipc.o(RTMSymTab)
    __rtmsym_rt_mutex_release                0x08021d28   Data           8  ipc.o(RTMSymTab)
    __rtmsym_rt_mutex_control                0x08021d30   Data           8  ipc.o(RTMSymTab)
    __rtmsym_rt_event_init                   0x08021d38   Data           8  ipc.o(RTMSymTab)
    __rtmsym_rt_event_detach                 0x08021d40   Data           8  ipc.o(RTMSymTab)
    __rtmsym_rt_event_create                 0x08021d48   Data           8  ipc.o(RTMSymTab)
    __rtmsym_rt_event_delete                 0x08021d50   Data           8  ipc.o(RTMSymTab)
    __rtmsym_rt_event_send                   0x08021d58   Data           8  ipc.o(RTMSymTab)
    __rtmsym_rt_event_recv                   0x08021d60   Data           8  ipc.o(RTMSymTab)
    __rtmsym_rt_event_control                0x08021d68   Data           8  ipc.o(RTMSymTab)
    __rtmsym_rt_mb_init                      0x08021d70   Data           8  ipc.o(RTMSymTab)
    __rtmsym_rt_mb_detach                    0x08021d78   Data           8  ipc.o(RTMSymTab)
    __rtmsym_rt_mb_create                    0x08021d80   Data           8  ipc.o(RTMSymTab)
    __rtmsym_rt_mb_delete                    0x08021d88   Data           8  ipc.o(RTMSymTab)
    __rtmsym_rt_mb_send_wait                 0x08021d90   Data           8  ipc.o(RTMSymTab)
    __rtmsym_rt_mb_send                      0x08021d98   Data           8  ipc.o(RTMSymTab)
    __rtmsym_rt_mb_recv                      0x08021da0   Data           8  ipc.o(RTMSymTab)
    __rtmsym_rt_mb_control                   0x08021da8   Data           8  ipc.o(RTMSymTab)
    __rtmsym_rt_mq_init                      0x08021db0   Data           8  ipc.o(RTMSymTab)
    __rtmsym_rt_mq_detach                    0x08021db8   Data           8  ipc.o(RTMSymTab)
    __rtmsym_rt_mq_create                    0x08021dc0   Data           8  ipc.o(RTMSymTab)
    __rtmsym_rt_mq_delete                    0x08021dc8   Data           8  ipc.o(RTMSymTab)
    __rtmsym_rt_mq_send                      0x08021dd0   Data           8  ipc.o(RTMSymTab)
    __rtmsym_rt_mq_urgent                    0x08021dd8   Data           8  ipc.o(RTMSymTab)
    __rtmsym_rt_mq_recv                      0x08021de0   Data           8  ipc.o(RTMSymTab)
    __rtmsym_rt_mq_control                   0x08021de8   Data           8  ipc.o(RTMSymTab)
    __rtmsym_rt_interrupt_enter              0x08021df0   Data           8  irq.o(RTMSymTab)
    __rtmsym_rt_interrupt_leave              0x08021df8   Data           8  irq.o(RTMSymTab)
    __rtmsym_rt_interrupt_get_nest           0x08021e00   Data           8  irq.o(RTMSymTab)
    __rtmsym_rt_hw_interrupt_disable         0x08021e08   Data           8  irq.o(RTMSymTab)
    __rtmsym_rt_hw_interrupt_enable          0x08021e10   Data           8  irq.o(RTMSymTab)
    __rtmsym_rt_get_errno                    0x08021e18   Data           8  kservice.o(RTMSymTab)
    __rtmsym_rt_set_errno                    0x08021e20   Data           8  kservice.o(RTMSymTab)
    __rtmsym__rt_errno                       0x08021e28   Data           8  kservice.o(RTMSymTab)
    __rtmsym_rt_memset                       0x08021e30   Data           8  kservice.o(RTMSymTab)
    __rtmsym_rt_memcpy                       0x08021e38   Data           8  kservice.o(RTMSymTab)
    __rtmsym_rt_memmove                      0x08021e40   Data           8  kservice.o(RTMSymTab)
    __rtmsym_rt_memcmp                       0x08021e48   Data           8  kservice.o(RTMSymTab)
    __rtmsym_rt_strstr                       0x08021e50   Data           8  kservice.o(RTMSymTab)
    __rtmsym_rt_strcasecmp                   0x08021e58   Data           8  kservice.o(RTMSymTab)
    __rtmsym_rt_strncpy                      0x08021e60   Data           8  kservice.o(RTMSymTab)
    __rtmsym_rt_strncmp                      0x08021e68   Data           8  kservice.o(RTMSymTab)
    __rtmsym_rt_strcmp                       0x08021e70   Data           8  kservice.o(RTMSymTab)
    __rtmsym_rt_strlen                       0x08021e78   Data           8  kservice.o(RTMSymTab)
    __rtmsym_rt_strdup                       0x08021e80   Data           8  kservice.o(RTMSymTab)
    __rtmsym_rt_show_version                 0x08021e88   Data           8  kservice.o(RTMSymTab)
    __rtmsym_rt_vsnprintf                    0x08021e90   Data           8  kservice.o(RTMSymTab)
    __rtmsym_rt_snprintf                     0x08021e98   Data           8  kservice.o(RTMSymTab)
    __rtmsym_rt_vsprintf                     0x08021ea0   Data           8  kservice.o(RTMSymTab)
    __rtmsym_rt_sprintf                      0x08021ea8   Data           8  kservice.o(RTMSymTab)
    __rtmsym_rt_console_get_device           0x08021eb0   Data           8  kservice.o(RTMSymTab)
    __rtmsym_rt_console_set_device           0x08021eb8   Data           8  kservice.o(RTMSymTab)
    __rtmsym_rt_hw_console_output            0x08021ec0   Data           8  kservice.o(RTMSymTab)
    __rtmsym_rt_kprintf                      0x08021ec8   Data           8  kservice.o(RTMSymTab)
    __rtmsym_rt_malloc_align                 0x08021ed0   Data           8  kservice.o(RTMSymTab)
    __rtmsym_rt_free_align                   0x08021ed8   Data           8  kservice.o(RTMSymTab)
    __rtmsym_rt_malloc                       0x08021ee0   Data           8  mem.o(RTMSymTab)
    __rtmsym_rt_realloc                      0x08021ee8   Data           8  mem.o(RTMSymTab)
    __rtmsym_rt_calloc                       0x08021ef0   Data           8  mem.o(RTMSymTab)
    __rtmsym_rt_free                         0x08021ef8   Data           8  mem.o(RTMSymTab)
    __rtmsym_rt_memheap_init                 0x08021f00   Data           8  memheap.o(RTMSymTab)
    __rtmsym_rt_memheap_detach               0x08021f08   Data           8  memheap.o(RTMSymTab)
    __rtmsym_rt_memheap_alloc                0x08021f10   Data           8  memheap.o(RTMSymTab)
    __rtmsym_rt_memheap_realloc              0x08021f18   Data           8  memheap.o(RTMSymTab)
    __rtmsym_rt_memheap_free                 0x08021f20   Data           8  memheap.o(RTMSymTab)
    __rtmsym_rt_mp_init                      0x08021f28   Data           8  mempool.o(RTMSymTab)
    __rtmsym_rt_mp_detach                    0x08021f30   Data           8  mempool.o(RTMSymTab)
    __rtmsym_rt_mp_create                    0x08021f38   Data           8  mempool.o(RTMSymTab)
    __rtmsym_rt_mp_delete                    0x08021f40   Data           8  mempool.o(RTMSymTab)
    __rtmsym_rt_mp_alloc                     0x08021f48   Data           8  mempool.o(RTMSymTab)
    __rtmsym_rt_mp_free                      0x08021f50   Data           8  mempool.o(RTMSymTab)
    __rtmsym_rt_object_get_information       0x08021f58   Data           8  object.o(RTMSymTab)
    __rtmsym_rt_thread_init                  0x08021f60   Data           8  thread.o(RTMSymTab)
    __rtmsym_rt_thread_self                  0x08021f68   Data           8  thread.o(RTMSymTab)
    __rtmsym_rt_thread_startup               0x08021f70   Data           8  thread.o(RTMSymTab)
    __rtmsym_rt_thread_detach                0x08021f78   Data           8  thread.o(RTMSymTab)
    __rtmsym_rt_thread_create                0x08021f80   Data           8  thread.o(RTMSymTab)
    __rtmsym_rt_thread_delete                0x08021f88   Data           8  thread.o(RTMSymTab)
    __rtmsym_rt_thread_yield                 0x08021f90   Data           8  thread.o(RTMSymTab)
    __rtmsym_rt_thread_delay                 0x08021f98   Data           8  thread.o(RTMSymTab)
    __rtmsym_rt_thread_control               0x08021fa0   Data           8  thread.o(RTMSymTab)
    __rtmsym_rt_thread_suspend               0x08021fa8   Data           8  thread.o(RTMSymTab)
    __rtmsym_rt_thread_resume                0x08021fb0   Data           8  thread.o(RTMSymTab)
    __rtmsym_rt_thread_timeout               0x08021fb8   Data           8  thread.o(RTMSymTab)
    __rtmsym_rt_thread_find                  0x08021fc0   Data           8  thread.o(RTMSymTab)
    __rtmsym_rt_timer_init                   0x08021fc8   Data           8  timer.o(RTMSymTab)
    __rtmsym_rt_timer_detach                 0x08021fd0   Data           8  timer.o(RTMSymTab)
    __rtmsym_rt_timer_create                 0x08021fd8   Data           8  timer.o(RTMSymTab)
    __rtmsym_rt_timer_delete                 0x08021fe0   Data           8  timer.o(RTMSymTab)
    __rtmsym_rt_timer_start                  0x08021fe8   Data           8  timer.o(RTMSymTab)
    __rtmsym_rt_timer_stop                   0x08021ff0   Data           8  timer.o(RTMSymTab)
    __rtmsym_rt_timer_control                0x08021ff8   Data           8  timer.o(RTMSymTab)
    __rtmsym_open                            0x08022000   Data           8  dfs_posix.o(RTMSymTab)
    __rtmsym_close                           0x08022008   Data           8  dfs_posix.o(RTMSymTab)
    __rtmsym_read                            0x08022010   Data           8  dfs_posix.o(RTMSymTab)
    __rtmsym_write                           0x08022018   Data           8  dfs_posix.o(RTMSymTab)
    __rtmsym_lseek                           0x08022020   Data           8  dfs_posix.o(RTMSymTab)
    __rtmsym_rename                          0x08022028   Data           8  dfs_posix.o(RTMSymTab)
    __rtmsym_unlink                          0x08022030   Data           8  dfs_posix.o(RTMSymTab)
    __rtmsym_stat                            0x08022038   Data           8  dfs_posix.o(RTMSymTab)
    __rtmsym_fstat                           0x08022040   Data           8  dfs_posix.o(RTMSymTab)
    __rtmsym_statfs                          0x08022048   Data           8  dfs_posix.o(RTMSymTab)
    __rtmsym_mkdir                           0x08022050   Data           8  dfs_posix.o(RTMSymTab)
    __rtmsym_rmdir                           0x08022058   Data           8  dfs_posix.o(RTMSymTab)
    __rtmsym_opendir                         0x08022060   Data           8  dfs_posix.o(RTMSymTab)
    __rtmsym_readdir                         0x08022068   Data           8  dfs_posix.o(RTMSymTab)
    __rtmsym_telldir                         0x08022070   Data           8  dfs_posix.o(RTMSymTab)
    __rtmsym_seekdir                         0x08022078   Data           8  dfs_posix.o(RTMSymTab)
    __rtmsym_rewinddir                       0x08022080   Data           8  dfs_posix.o(RTMSymTab)
    __rtmsym_closedir                        0x08022088   Data           8  dfs_posix.o(RTMSymTab)
    __rtmsym_chdir                           0x08022090   Data           8  dfs_posix.o(RTMSymTab)
    __rtmsym_getcwd                          0x08022098   Data           8  dfs_posix.o(RTMSymTab)
    __rtmsym_rt_data_queue_init              0x080220a0   Data           8  dataqueue.o(RTMSymTab)
    __rtmsym_rt_data_queue_push              0x080220a8   Data           8  dataqueue.o(RTMSymTab)
    __rtmsym_rt_data_queue_pop               0x080220b0   Data           8  dataqueue.o(RTMSymTab)
    __rtmsym_rt_data_queue_peak              0x080220b8   Data           8  dataqueue.o(RTMSymTab)
    __rtmsym_rt_data_queue_reset             0x080220c0   Data           8  dataqueue.o(RTMSymTab)
    __rtmsym_rt_pipe_init                    0x080220c8   Data           8  pipe.o(RTMSymTab)
    __rtmsym_rt_pipe_detach                  0x080220d0   Data           8  pipe.o(RTMSymTab)
    __rtmsym_rt_pipe_create                  0x080220d8   Data           8  pipe.o(RTMSymTab)
    __rtmsym_rt_pipe_destroy                 0x080220e0   Data           8  pipe.o(RTMSymTab)
    __rtmsym_rt_portal_init                  0x080220e8   Data           8  portal.o(RTMSymTab)
    __rtmsym_rt_portal_detach                0x080220f0   Data           8  portal.o(RTMSymTab)
    __rtmsym_rt_portal_create                0x080220f8   Data           8  portal.o(RTMSymTab)
    __rtmsym_rt_portal_destroy               0x08022100   Data           8  portal.o(RTMSymTab)
    __rtmsym_rt_ringbuffer_init              0x08022108   Data           8  ringbuffer.o(RTMSymTab)
    __rtmsym_rt_ringbuffer_put               0x08022110   Data           8  ringbuffer.o(RTMSymTab)
    __rtmsym_rt_ringbuffer_put_force         0x08022118   Data           8  ringbuffer.o(RTMSymTab)
    __rtmsym_rt_ringbuffer_get               0x08022120   Data           8  ringbuffer.o(RTMSymTab)
    __rtmsym_rt_ringbuffer_putchar           0x08022128   Data           8  ringbuffer.o(RTMSymTab)
    __rtmsym_rt_ringbuffer_putchar_force     0x08022130   Data           8  ringbuffer.o(RTMSymTab)
    __rtmsym_rt_ringbuffer_getchar           0x08022138   Data           8  ringbuffer.o(RTMSymTab)
    RTMSymTab$$Limit                         0x08022140   Number         0  ringbuffer.o(RTMSymTab)
    Region$$Table$$Base                      0x08022140   Number         0  anon$$obj.o(Region$$Table)
    Region$$Table$$Limit                     0x08022160   Number         0  anon$$obj.o(Region$$Table)
    VSymTab$$Base                            0x08022160   Number         0  cmd.o(VSymTab)
    __vsym_dummy                             0x08022160   Data          16  cmd.o(VSymTab)
    VSymTab$$Limit                           0x08022170   Number         0  cmd.o(VSymTab)
    __ctype                                  0x0802217d   Data           0  lc_ctype_c.o(locale$$data)
    uart3                                    0x20000018   Data           8  usart.o(.data)
    StopCondition                            0x2000002c   Data           4  sdio_sd.o(.data)
    TransferError                            0x20000030   Data           1  sdio_sd.o(.data)
    TransferEnd                              0x20000034   Data           4  sdio_sd.o(.data)
    DMAEndOfTransfer                         0x20000038   Data           4  sdio_sd.o(.data)
    AsynchPrediv                             0x20000044   Data           4  stm32f4_rtc.o(.data)
    SynchPrediv                              0x20000048   Data           4  stm32f4_rtc.o(.data)
    TimeDisplay                              0x2000004c   Data           4  stm32f4_rtc.o(.data)
    errorindex                               0x20000050   Data           4  stm32f4_rtc.o(.data)
    i                                        0x20000054   Data           4  stm32f4_rtc.o(.data)
    BKPDataReg                               0x20000058   Data          80  stm32f4_rtc.o(.data)
    SystemCoreClock                          0x200000a8   Data           4  system_stm32f4xx.o(.data)
    AHBPrescTable                            0x200000ac   Data          16  system_stm32f4xx.o(.data)
    rt_interrupt_nest                        0x200000d4   Data           1  irq.o(.data)
    rt_object_container                      0x2000011c   Data         176  object.o(.data)
    rt_object_trytake_hook                   0x200001d4   Data           4  object.o(.data)
    rt_object_take_hook                      0x200001d8   Data           4  object.o(.data)
    rt_object_put_hook                       0x200001dc   Data           4  object.o(.data)
    rt_current_thread                        0x200001e4   Data           4  scheduler.o(.data)
    rt_current_priority                      0x200001e8   Data           1  scheduler.o(.data)
    rt_thread_ready_priority_group           0x200001ec   Data           4  scheduler.o(.data)
    rt_thread_defunct                        0x200001f0   Data           8  scheduler.o(.data)
    rt_interrupt_from_thread                 0x20000208   Data           4  cpuport.o(.data)
    rt_interrupt_to_thread                   0x2000020c   Data           4  cpuport.o(.data)
    rt_thread_switch_interrupt_flag          0x20000210   Data           4  cpuport.o(.data)
    working_directory                        0x20000218   Data         256  dfs.o(.data)
    finsh_compile_sp                         0x2000033c   Data           4  finsh_compiler.o(.data)
    finsh_compile_pc                         0x20000340   Data           4  finsh_compiler.o(.data)
    global_errno                             0x20000344   Data           1  finsh_error.o(.data)
    global_sysvar_list                       0x2000038c   Data           4  finsh_var.o(.data)
    finsh_sp                                 0x20000390   Data           4  finsh_vm.o(.data)
    finsh_pc                                 0x20000394   Data           4  finsh_vm.o(.data)
    global_syscall_list                      0x20000398   Data           4  finsh_vm.o(.data)
    shell                                    0x2000039c   Data           4  shell.o(.data)
    _syscall_table_begin                     0x20000424   Data           4  symbol.o(.data)
    _syscall_table_end                       0x20000428   Data           4  symbol.o(.data)
    _sysvar_table_begin                      0x2000042c   Data           4  symbol.o(.data)
    _sysvar_table_end                        0x20000430   Data           4  symbol.o(.data)
    uart3_int_rx                             0x2000059c   Data          68  usart.o(.bss)
    serial3                                  0x200005e0   Data         128  usart.o(.bss)
    SDIO_InitStructure                       0x200006e0   Data          24  sdio_sd.o(.bss)
    SDIO_CmdInitStructure                    0x200006f8   Data          20  sdio_sd.o(.bss)
    SDIO_DataInitStructure                   0x2000070c   Data          24  sdio_sd.o(.bss)
    rt_thread_priority_table                 0x20000f88   Data         256  scheduler.o(.bss)
    filesystem_operation_table               0x20001088   Data          16  dfs.o(.bss)
    filesystem_table                         0x20001098   Data          32  dfs.o(.bss)
    fd_table                                 0x200010e0   Data         512  dfs.o(.bss)
    finsh_heap                               0x20001404   Data         128  finsh_heap.o(.bss)
    global_node_table                        0x20001484   Data         320  finsh_node.o(.bss)
    global_variable                          0x200015c4   Data         192  finsh_var.o(.bss)
    finsh_vm_stack                           0x20001684   Data         256  finsh_vm.o(.bss)
    text_segment                             0x20001784   Data         128  finsh_vm.o(.bss)
    __libspace_start                         0x200028fc   Data          96  libspace.o(.bss)
    __temporary_stack_top$libspace           0x2000295c   Data           0  libspace.o(.bss)
    Image$$RW_IRAM1$$ZI$$Limit               0x20002f60   Number         0  anon$$obj.o ABSOLUTE



==============================================================================

Memory Map of the image

  Image Entry point : 0x08000189

  Load Region LR_IROM1 (Base: 0x08000000, Size: 0x00022850, Max: 0x00100000, ABSOLUTE, COMPRESSED[0x00022514])

    Execution Region ER_IROM1 (Base: 0x08000000, Size: 0x0002241c, Max: 0x00100000, ABSOLUTE)

    Base Addr    Size         Type   Attr      Idx    E Section Name        Object

    0x08000000   0x00000188   Data   RO         1000    RESET               startup_stm32f4xx.o
    0x08000188   0x00000008   Code   RO         1992  * !!!main             c_w.l(__main.o)
    0x08000190   0x00000034   Code   RO         2337    !!!scatter          c_w.l(__scatter.o)
    0x080001c4   0x0000005a   Code   RO         2335    !!dczerorl2         c_w.l(__dczerorl2.o)
    0x0800021e   0x00000002   PAD
    0x08000220   0x0000001c   Code   RO         2339    !!handler_zi        c_w.l(__scatter_zi.o)
    0x0800023c   0x00000000   Code   RO         2140    .ARM.Collect$$_printf_percent$$00000000  c_w.l(_printf_percent.o)
    0x0800023c   0x00000006   Code   RO         2129    .ARM.Collect$$_printf_percent$$00000001  c_w.l(_printf_n.o)
    0x08000242   0x00000006   Code   RO         2131    .ARM.Collect$$_printf_percent$$00000002  c_w.l(_printf_p.o)
    0x08000248   0x00000006   Code   RO         2136    .ARM.Collect$$_printf_percent$$00000003  c_w.l(_printf_f.o)
    0x0800024e   0x00000006   Code   RO         2137    .ARM.Collect$$_printf_percent$$00000004  c_w.l(_printf_e.o)
    0x08000254   0x00000006   Code   RO         2138    .ARM.Collect$$_printf_percent$$00000005  c_w.l(_printf_g.o)
    0x0800025a   0x00000006   Code   RO         2139    .ARM.Collect$$_printf_percent$$00000006  c_w.l(_printf_a.o)
    0x08000260   0x0000000a   Code   RO         2144    .ARM.Collect$$_printf_percent$$00000007  c_w.l(_printf_ll.o)
    0x0800026a   0x00000006   Code   RO         2133    .ARM.Collect$$_printf_percent$$00000008  c_w.l(_printf_i.o)
    0x08000270   0x00000006   Code   RO         2134    .ARM.Collect$$_printf_percent$$00000009  c_w.l(_printf_d.o)
    0x08000276   0x00000006   Code   RO         2135    .ARM.Collect$$_printf_percent$$0000000A  c_w.l(_printf_u.o)
    0x0800027c   0x00000006   Code   RO         2132    .ARM.Collect$$_printf_percent$$0000000B  c_w.l(_printf_o.o)
    0x08000282   0x00000006   Code   RO         2130    .ARM.Collect$$_printf_percent$$0000000C  c_w.l(_printf_x.o)
    0x08000288   0x00000006   Code   RO         2141    .ARM.Collect$$_printf_percent$$0000000D  c_w.l(_printf_lli.o)
    0x0800028e   0x00000006   Code   RO         2142    .ARM.Collect$$_printf_percent$$0000000E  c_w.l(_printf_lld.o)
    0x08000294   0x00000006   Code   RO         2143    .ARM.Collect$$_printf_percent$$0000000F  c_w.l(_printf_llu.o)
    0x0800029a   0x00000006   Code   RO         2148    .ARM.Collect$$_printf_percent$$00000010  c_w.l(_printf_llo.o)
    0x080002a0   0x00000006   Code   RO         2149    .ARM.Collect$$_printf_percent$$00000011  c_w.l(_printf_llx.o)
    0x080002a6   0x0000000a   Code   RO         2145    .ARM.Collect$$_printf_percent$$00000012  c_w.l(_printf_l.o)
    0x080002b0   0x00000006   Code   RO         2127    .ARM.Collect$$_printf_percent$$00000013  c_w.l(_printf_c.o)
    0x080002b6   0x00000006   Code   RO         2128    .ARM.Collect$$_printf_percent$$00000014  c_w.l(_printf_s.o)
    0x080002bc   0x00000006   Code   RO         2146    .ARM.Collect$$_printf_percent$$00000015  c_w.l(_printf_lc.o)
    0x080002c2   0x00000006   Code   RO         2147    .ARM.Collect$$_printf_percent$$00000016  c_w.l(_printf_ls.o)
    0x080002c8   0x00000004   Code   RO         2225    .ARM.Collect$$_printf_percent$$00000017  c_w.l(_printf_percent_end.o)
    0x080002cc   0x00000002   Code   RO         2056    .ARM.Collect$$libinit$$00000000  c_w.l(libinit.o)
    0x080002ce   0x00000004   Code   RO         2150    .ARM.Collect$$libinit$$00000001  c_w.l(libinit2.o)
    0x080002d2   0x00000000   Code   RO         2153    .ARM.Collect$$libinit$$00000004  c_w.l(libinit2.o)
    0x080002d2   0x00000000   Code   RO         2156    .ARM.Collect$$libinit$$0000000A  c_w.l(libinit2.o)
    0x080002d2   0x00000000   Code   RO         2158    .ARM.Collect$$libinit$$0000000C  c_w.l(libinit2.o)
    0x080002d2   0x00000000   Code   RO         2160    .ARM.Collect$$libinit$$0000000E  c_w.l(libinit2.o)
    0x080002d2   0x00000006   Code   RO         2161    .ARM.Collect$$libinit$$0000000F  c_w.l(libinit2.o)
    0x080002d8   0x00000000   Code   RO         2163    .ARM.Collect$$libinit$$00000011  c_w.l(libinit2.o)
    0x080002d8   0x0000000c   Code   RO         2164    .ARM.Collect$$libinit$$00000012  c_w.l(libinit2.o)
    0x080002e4   0x00000000   Code   RO         2165    .ARM.Collect$$libinit$$00000013  c_w.l(libinit2.o)
    0x080002e4   0x00000000   Code   RO         2167    .ARM.Collect$$libinit$$00000015  c_w.l(libinit2.o)
    0x080002e4   0x0000000a   Code   RO         2168    .ARM.Collect$$libinit$$00000016  c_w.l(libinit2.o)
    0x080002ee   0x00000000   Code   RO         2169    .ARM.Collect$$libinit$$00000017  c_w.l(libinit2.o)
    0x080002ee   0x0000000a   Code   RO         2170    .ARM.Collect$$libinit$$00000018  c_w.l(libinit2.o)
    0x080002f8   0x00000000   Code   RO         2171    .ARM.Collect$$libinit$$00000019  c_w.l(libinit2.o)
    0x080002f8   0x00000000   Code   RO         2173    .ARM.Collect$$libinit$$0000001B  c_w.l(libinit2.o)
    0x080002f8   0x00000000   Code   RO         2175    .ARM.Collect$$libinit$$0000001D  c_w.l(libinit2.o)
    0x080002f8   0x00000000   Code   RO         2177    .ARM.Collect$$libinit$$0000001F  c_w.l(libinit2.o)
    0x080002f8   0x00000000   Code   RO         2179    .ARM.Collect$$libinit$$00000021  c_w.l(libinit2.o)
    0x080002f8   0x00000000   Code   RO         2181    .ARM.Collect$$libinit$$00000023  c_w.l(libinit2.o)
    0x080002f8   0x00000000   Code   RO         2183    .ARM.Collect$$libinit$$00000025  c_w.l(libinit2.o)
    0x080002f8   0x00000000   Code   RO         2187    .ARM.Collect$$libinit$$0000002C  c_w.l(libinit2.o)
    0x080002f8   0x00000000   Code   RO         2189    .ARM.Collect$$libinit$$0000002E  c_w.l(libinit2.o)
    0x080002f8   0x00000000   Code   RO         2191    .ARM.Collect$$libinit$$00000030  c_w.l(libinit2.o)
    0x080002f8   0x00000000   Code   RO         2193    .ARM.Collect$$libinit$$00000032  c_w.l(libinit2.o)
    0x080002f8   0x00000002   Code   RO         2194    .ARM.Collect$$libinit$$00000033  c_w.l(libinit2.o)
    0x080002fa   0x00000002   Code   RO         2270    .ARM.Collect$$libshutdown$$00000000  c_w.l(libshutdown.o)
    0x080002fc   0x00000000   Code   RO         2288    .ARM.Collect$$libshutdown$$00000002  c_w.l(libshutdown2.o)
    0x080002fc   0x00000000   Code   RO         2290    .ARM.Collect$$libshutdown$$00000004  c_w.l(libshutdown2.o)
    0x080002fc   0x00000000   Code   RO         2293    .ARM.Collect$$libshutdown$$00000007  c_w.l(libshutdown2.o)
    0x080002fc   0x00000000   Code   RO         2296    .ARM.Collect$$libshutdown$$0000000A  c_w.l(libshutdown2.o)
    0x080002fc   0x00000000   Code   RO         2298    .ARM.Collect$$libshutdown$$0000000C  c_w.l(libshutdown2.o)
    0x080002fc   0x00000000   Code   RO         2301    .ARM.Collect$$libshutdown$$0000000F  c_w.l(libshutdown2.o)
    0x080002fc   0x00000002   Code   RO         2302    .ARM.Collect$$libshutdown$$00000010  c_w.l(libshutdown2.o)
    0x080002fe   0x00000000   Code   RO         1994    .ARM.Collect$$rtentry$$00000000  c_w.l(__rtentry.o)
    0x080002fe   0x00000000   Code   RO         2012    .ARM.Collect$$rtentry$$00000002  c_w.l(__rtentry2.o)
    0x080002fe   0x00000006   Code   RO         2024    .ARM.Collect$$rtentry$$00000004  c_w.l(__rtentry4.o)
    0x08000304   0x00000000   Code   RO         2014    .ARM.Collect$$rtentry$$00000009  c_w.l(__rtentry2.o)
    0x08000304   0x00000004   Code   RO         2015    .ARM.Collect$$rtentry$$0000000A  c_w.l(__rtentry2.o)
    0x08000308   0x00000000   Code   RO         2017    .ARM.Collect$$rtentry$$0000000C  c_w.l(__rtentry2.o)
    0x08000308   0x00000008   Code   RO         2018    .ARM.Collect$$rtentry$$0000000D  c_w.l(__rtentry2.o)
    0x08000310   0x00000002   Code   RO         2057    .ARM.Collect$$rtexit$$00000000  c_w.l(rtexit.o)
    0x08000312   0x00000000   Code   RO         2204    .ARM.Collect$$rtexit$$00000002  c_w.l(rtexit2.o)
    0x08000312   0x00000004   Code   RO         2205    .ARM.Collect$$rtexit$$00000003  c_w.l(rtexit2.o)
    0x08000316   0x00000006   Code   RO         2206    .ARM.Collect$$rtexit$$00000004  c_w.l(rtexit2.o)
    0x0800031c   0x00000040   Code   RO            2    .text               application.o
    0x0800035c   0x000000ac   Code   RO          216    .text               startup.o
    0x08000408   0x000003ac   Code   RO          236    .text               board.o
    0x080007b4   0x000001b8   Code   RO          270    .text               platform.o
    0x0800096c   0x00000410   Code   RO          303    .text               usart.o
    0x08000d7c   0x0000007e   Code   RO          351    .text               stm32f4xx_it.o
    0x08000dfa   0x00000002   PAD
    0x08000dfc   0x00001dac   Code   RO          367    .text               sdio_sd.o
    0x08002ba8   0x000002a0   Code   RO          391    .text               stm32f20x_40x_spi.o
    0x08002e48   0x000005fe   Code   RO          408    .text               spi_flash_w25qxx.o
    0x08003446   0x00000002   PAD
    0x08003448   0x00000434   Code   RO          430    .text               stm32f4_rtc.o
    0x0800387c   0x00000210   Code   RO          455    .text               system_stm32f4xx.o
    0x08003a8c   0x000001f8   Code   RO          477    .text               misc.o
    0x08003c84   0x00001368   Code   RO          659    .text               stm32f4xx_dma.o
    0x08004fec   0x000002d4   Code   RO          676    .text               stm32f4xx_exti.o
    0x080052c0   0x000008c8   Code   RO          727    .text               stm32f4xx_gpio.o
    0x08005b88   0x0000020c   Code   RO          827    .text               stm32f4xx_pwr.o
    0x08005d94   0x00000cfc   Code   RO          844    .text               stm32f4xx_rcc.o
    0x08006a90   0x000016f4   Code   RO          880    .text               stm32f4xx_rtc.o
    0x08008184   0x0000061c   Code   RO          897    .text               stm32f4xx_sdio.o
    0x080087a0   0x00000b48   Code   RO          914    .text               stm32f4xx_spi.o
    0x080092e8   0x00000e24   Code   RO          965    .text               stm32f4xx_usart.o
    0x0800a10c   0x00000040   Code   RO         1001    .text               startup_stm32f4xx.o
    0x0800a14c   0x00000064   Code   RO         1005    .text               clock.o
    0x0800a1b0   0x00000438   Code   RO         1022    .text               device.o
    0x0800a5e8   0x0000019c   Code   RO         1039    .text               idle.o
    0x0800a784   0x000018ac   Code   RO         1059    .text               ipc.o
    0x0800c030   0x00000048   Code   RO         1079    .text               irq.o
    0x0800c078   0x000009b4   Code   RO         1096    .text               kservice.o
    0x0800ca2c   0x000009b4   Code   RO         1114    .text               mem.o
    0x0800d3e0   0x00000624   Code   RO         1134    .text               memheap.o
    0x0800da04   0x00000440   Code   RO         1150    .text               mempool.o
    0x0800de44   0x000013ac   Code   RO         1170    .text               module.o
    0x0800f1f0   0x00000388   Code   RO         1201    .text               object.o
    0x0800f578   0x0000032c   Code   RO         1222    .text               scheduler.o
    0x0800f8a4   0x000006c8   Code   RO         1243    .text               thread.o
    0x0800ff6c   0x00000448   Code   RO         1263    .text               timer.o
    0x080103b4   0x000001c0   Code   RO         1284    .text               cpuport.o
    0x08010574   0x00000110   Code   RO         1300    .text               context_rvds.o
    0x08010684   0x000003d4   Code   RO         1338    .text               dfs.o
    0x08010a58   0x000006c0   Code   RO         1363    .text               dfs_fs.o
    0x08011118   0x000006dc   Code   RO         1380    .text               dfs_file.o
    0x080117f4   0x000005c4   Code   RO         1400    .text               dfs_posix.o
    0x08011db8   0x00000b88   Code   RO         1417    .text               dfs_elm.o
    0x08012940   0x000030e0   Code   RO         1447    .text               ff.o
    0x08015a20   0x00000154   Code   RO         1462    .text               ccfile.o
    0x08015b74   0x00000404   Code   RO         1479    .text               devfs.o
    0x08015f78   0x0000013c   Code   RO         1513    .text               rtc.o
    0x080160b4   0x000005d8   Code   RO         1539    .text               serial.o
    0x0801668c   0x0000076c   Code   RO         1552    .text               spi_core.o
    0x08016df8   0x00000398   Code   RO         1565    .text               spi_dev.o
    0x08017190   0x000004c4   Code   RO         1594    .text               dataqueue.o
    0x08017654   0x00000516   Code   RO         1616    .text               pipe.o
    0x08017b6a   0x00000002   PAD
    0x08017b6c   0x00000374   Code   RO         1638    .text               portal.o
    0x08017ee0   0x00000540   Code   RO         1654    .text               ringbuffer.o
    0x08018420   0x00000ed0   Code   RO         1676    .text               cmd.o
    0x080192f0   0x000017f8   Code   RO         1699    .text               finsh_compiler.o
    0x0801aae8   0x0000002c   Code   RO         1736    .text               finsh_error.o
    0x0801ab14   0x00000210   Code   RO         1752    .text               finsh_heap.o
    0x0801ad24   0x00000058   Code   RO         1768    .text               finsh_init.o
    0x0801ad7c   0x00000184   Code   RO         1786    .text               finsh_node.o
    0x0801af00   0x00000adc   Code   RO         1801    .text               finsh_ops.o
    0x0801b9dc   0x0000097c   Code   RO         1819    .text               finsh_parser.o
    0x0801c358   0x00000644   Code   RO         1834    .text               finsh_token.o
    0x0801c99c   0x0000019c   Code   RO         1849    .text               finsh_var.o
    0x0801cb38   0x000000e4   Code   RO         1872    .text               finsh_vm.o
    0x0801cc1c   0x0000081c   Code   RO         1914    .text               shell.o
    0x0801d438   0x00000040   Code   RO         1946    .text               components.o
    0x0801d478   0x0000001a   Code   RO         1965    .text               c_w.l(atoi.o)
    0x0801d492   0x0000003e   Code   RO         1967    .text               c_w.l(strlen.o)
    0x0801d4d0   0x00000096   Code   RO         1969    .text               c_w.l(strncmp.o)
    0x0801d566   0x00000018   Code   RO         1971    .text               c_w.l(strcat.o)
    0x0801d57e   0x0000008a   Code   RO         1973    .text               c_w.l(rt_memcpy_v6.o)
    0x0801d608   0x00000064   Code   RO         1975    .text               c_w.l(rt_memcpy_w.o)
    0x0801d66c   0x00000044   Code   RO         1977    .text               c_w.l(rt_memclr.o)
    0x0801d6b0   0x0000004e   Code   RO         1979    .text               c_w.l(rt_memclr_w.o)
    0x0801d6fe   0x00000056   Code   RO         1981    .text               c_w.l(strncpy.o)
    0x0801d754   0x0000000e   Code   RO         1983    .text               c_w.l(ctime.o)
    0x0801d762   0x00000002   PAD
    0x0801d764   0x0000000c   Code   RO         1985    .text               c_w.l(localtime.o)
    0x0801d770   0x000001a8   Code   RO         1988    .text               c_w.l(mktime.o)
    0x0801d918   0x00000006   Code   RO         1990    .text               c_w.l(heapauxi.o)
    0x0801d91e   0x00000002   PAD
    0x0801d920   0x00000008   Code   RO         1998    .text               c_w.l(rt_errno_addr_intlibspace.o)
    0x0801d928   0x00000070   Code   RO         2000    .text               c_w.l(strtol.o)
    0x0801d998   0x0000000c   Code   RO         2002    .text               c_w.l(asctime.o)
    0x0801d9a4   0x000000b8   Code   RO         2006    .text               c_w.l(localtime_internal.o)
    0x0801da5c   0x00000008   Code   RO         2008    .text               c_w.l(libspace.o)
    0x0801da64   0x00000010   Code   RO         2026    .text               c_w.l(rt_ctype_table.o)
    0x0801da74   0x0000009e   Code   RO         2028    .text               c_w.l(_strtoul.o)
    0x0801db12   0x00000002   PAD
    0x0801db14   0x00000068   Code   RO         2030    .text               c_w.l(asctime_internal.o)
    0x0801db7c   0x0000004a   Code   RO         2032    .text               c_w.l(sys_stackheap_outer.o)
    0x0801dbc6   0x00000002   PAD
    0x0801dbc8   0x00000008   Code   RO         2037    .text               c_w.l(rt_locale_intlibspace.o)
    0x0801dbd0   0x0000002c   Code   RO         2039    .text               c_w.l(sprintf.o)
    0x0801dbfc   0x0000001c   Code   RO         2041    .text               c_w.l(_chval.o)
    0x0801dc18   0x00000012   Code   RO         2049    .text               c_w.l(exit.o)
    0x0801dc2a   0x0000004e   Code   RO         2061    .text               c_w.l(_printf_pad.o)
    0x0801dc78   0x00000024   Code   RO         2063    .text               c_w.l(_printf_truncate.o)
    0x0801dc9c   0x00000052   Code   RO         2065    .text               c_w.l(_printf_str.o)
    0x0801dcee   0x00000002   PAD
    0x0801dcf0   0x00000078   Code   RO         2067    .text               c_w.l(_printf_dec.o)
    0x0801dd68   0x00000028   Code   RO         2069    .text               c_w.l(_printf_charcount.o)
    0x0801dd90   0x00000030   Code   RO         2071    .text               c_w.l(_printf_char_common.o)
    0x0801ddc0   0x0000000a   Code   RO         2073    .text               c_w.l(_sputc.o)
    0x0801ddca   0x00000002   PAD
    0x0801ddcc   0x000000bc   Code   RO         2075    .text               c_w.l(_printf_wctomb.o)
    0x0801de88   0x0000007c   Code   RO         2078    .text               c_w.l(_printf_longlong_dec.o)
    0x0801df04   0x00000070   Code   RO         2084    .text               c_w.l(_printf_oct_int_ll.o)
    0x0801df74   0x00000094   Code   RO         2104    .text               c_w.l(_printf_hex_int_ll_ptr.o)
    0x0801e008   0x00000188   Code   RO         2124    .text               c_w.l(__printf_flags_ss_wp.o)
    0x0801e190   0x0000008a   Code   RO         2210    .text               c_w.l(lludiv10.o)
    0x0801e21a   0x000000b2   Code   RO         2212    .text               c_w.l(_printf_intcommon.o)
    0x0801e2cc   0x0000041a   Code   RO         2214    .text               c_w.l(_printf_fp_dec.o)
    0x0801e6e6   0x00000002   PAD
    0x0801e6e8   0x000002fc   Code   RO         2216    .text               c_w.l(_printf_fp_hex.o)
    0x0801e9e4   0x0000002c   Code   RO         2221    .text               c_w.l(_printf_char.o)
    0x0801ea10   0x0000002c   Code   RO         2223    .text               c_w.l(_printf_wchar.o)
    0x0801ea3c   0x00000040   Code   RO         2226    .text               c_w.l(_wcrtomb.o)
    0x0801ea7c   0x0000000c   Code   RO         2232    .text               c_w.l(sys_exit.o)
    0x0801ea88   0x00000080   Code   RO         2234    .text               c_w.l(_printf_fp_infnan.o)
    0x0801eb08   0x000000dc   Code   RO         2236    .text               c_w.l(bigflt0.o)
    0x0801ebe4   0x00000002   Code   RO         2278    .text               c_w.l(use_no_semi.o)
    0x0801ebe6   0x00000000   Code   RO         2280    .text               c_w.l(indicate_semi.o)
    0x0801ebe6   0x0000003e   Code   RO         2239    CL$$btod_d2e        c_w.l(btod.o)
    0x0801ec24   0x00000046   Code   RO         2241    CL$$btod_d2e_denorm_low  c_w.l(btod.o)
    0x0801ec6a   0x00000060   Code   RO         2240    CL$$btod_d2e_norm_op1  c_w.l(btod.o)
    0x0801ecca   0x00000338   Code   RO         2249    CL$$btod_div_common  c_w.l(btod.o)
    0x0801f002   0x000000c6   Code   RO         2246    CL$$btod_e2e        c_w.l(btod.o)
    0x0801f0c8   0x00000028   Code   RO         2243    CL$$btod_ediv       c_w.l(btod.o)
    0x0801f0f0   0x00000028   Code   RO         2242    CL$$btod_emul       c_w.l(btod.o)
    0x0801f118   0x00000244   Code   RO         2248    CL$$btod_mult_common  c_w.l(btod.o)
    0x0801f35c   0x00000030   Code   RO         2274    i.__ARM_fpclassify  m_wm.l(fpclassify.o)
    0x0801f38c   0x0000000e   Code   RO         2117    i._is_digit         c_w.l(__printf_wp.o)
    0x0801f39a   0x00000002   PAD
    0x0801f39c   0x0000002c   Code   RO         2044    locale$$code        c_w.l(lc_ctype_c.o)
    0x0801f3c8   0x0000002c   Code   RO         2047    locale$$code        c_w.l(lc_time_c.o)
    0x0801f3f4   0x0000002c   Code   RO         2262    locale$$code        c_w.l(lc_numeric_c.o)
    0x0801f420   0x0000000a   Code   RO         2230    x$fpl$fpinit        fz_wm.l(fpinit.o)
    0x0801f42a   0x00000004   Code   RO         2195    x$fpl$printf1       fz_wm.l(printf1.o)
    0x0801f42e   0x00000004   Code   RO         2197    x$fpl$printf2       fz_wm.l(printf2.o)
    0x0801f432   0x00000000   Code   RO         2273    x$fpl$usenofp       fz_wm.l(usenofp.o)
    0x0801f432   0x00000002   PAD
    0x0801f434   0x0000003c   Data   RO          188    .constdata          mnttable.o
    0x0801f470   0x0000000c   Data   RO          237    .constdata          board.o
    0x0801f47c   0x00000048   Data   RO          305    .constdata          usart.o
    0x0801f4c4   0x00000012   Data   RO          369    .constdata          sdio_sd.o
    0x0801f4d6   0x00000027   Data   RO          410    .constdata          spi_flash_w25qxx.o
    0x0801f4fd   0x0000000f   Data   RO          432    .constdata          stm32f4_rtc.o
    0x0801f50c   0x00000025   Data   RO         1006    .constdata          clock.o
    0x0801f531   0x00000163   Data   RO         1023    .constdata          device.o
    0x0801f694   0x00000016   Data   RO         1041    .constdata          idle.o
    0x0801f6aa   0x000003d7   Data   RO         1060    .constdata          ipc.o
    0x0801fa81   0x0000006b   Data   RO         1080    .constdata          irq.o
    0x0801faec   0x00000265   Data   RO         1098    .constdata          kservice.o
    0x0801fd51   0x00000094   Data   RO         1116    .constdata          mem.o
    0x0801fde5   0x000000ac   Data   RO         1135    .constdata          memheap.o
    0x0801fe91   0x00000087   Data   RO         1151    .constdata          mempool.o
    0x0801ff18   0x000000a1   Data   RO         1171    .constdata          module.o
    0x0801ffb9   0x00000078   Data   RO         1202    .constdata          object.o
    0x08020031   0x0000004e   Data   RO         1224    .constdata          scheduler.o
    0x0802007f   0x00000183   Data   RO         1244    .constdata          thread.o
    0x08020202   0x000000c8   Data   RO         1264    .constdata          timer.o
    0x080202ca   0x00000013   Data   RO         1285    .constdata          cpuport.o
    0x080202dd   0x00000023   Data   RO         1340    .constdata          dfs.o
    0x08020300   0x00000046   Data   RO         1364    .constdata          dfs_fs.o
    0x08020346   0x00000073   Data   RO         1382    .constdata          dfs_file.o
    0x080203b9   0x000000c5   Data   RO         1401    .constdata          dfs_posix.o
    0x0802047e   0x00000002   PAD
    0x08020480   0x000000b9   Data   RO         1418    .constdata          dfs_elm.o
    0x08020539   0x00000001   PAD
    0x0802053a   0x0000003a   Data   RO         1448    .constdata          ff.o
    0x08020574   0x000003c0   Data   RO         1463    .constdata          ccfile.o
    0x08020934   0x000000aa   Data   RO         1480    .constdata          devfs.o
    0x080209de   0x00000075   Data   RO         1514    .constdata          rtc.o
    0x08020a53   0x00000086   Data   RO         1540    .constdata          serial.o
    0x08020ad9   0x000000a3   Data   RO         1553    .constdata          spi_core.o
    0x08020b7c   0x000000d9   Data   RO         1566    .constdata          spi_dev.o
    0x08020c55   0x000000aa   Data   RO         1595    .constdata          dataqueue.o
    0x08020cff   0x00000091   Data   RO         1617    .constdata          pipe.o
    0x08020d90   0x000000a2   Data   RO         1639    .constdata          portal.o
    0x08020e32   0x0000012e   Data   RO         1655    .constdata          ringbuffer.o
    0x08020f60   0x00000278   Data   RO         1677    .constdata          cmd.o
    0x080211d8   0x000000c4   Data   RO         1802    .constdata          finsh_ops.o
    0x0802129c   0x00000040   Data   RO         1835    .constdata          finsh_token.o
    0x080212dc   0x0000004d   Data   RO         1916    .constdata          shell.o
    0x08021329   0x0000000c   Data   RO         2005    .constdata          c_w.l(_monlen.o)
    0x08021335   0x00000003   PAD
    0x08021338   0x00000008   Data   RO         2076    .constdata          c_w.l(_printf_wctomb.o)
    0x08021340   0x00000028   Data   RO         2105    .constdata          c_w.l(_printf_hex_int_ll_ptr.o)
    0x08021368   0x00000011   Data   RO         2125    .constdata          c_w.l(__printf_flags_ss_wp.o)
    0x08021379   0x00000026   Data   RO         2217    .constdata          c_w.l(_printf_fp_hex.o)
    0x0802139f   0x00000001   PAD
    0x080213a0   0x00000094   Data   RO         2237    .constdata          c_w.l(bigflt0.o)
    0x08021434   0x00000018   Data   RO          189    .conststring        mnttable.o
    0x0802144c   0x00000043   Data   RO          660    .conststring        stm32f4xx_dma.o
    0x0802148f   0x00000001   PAD
    0x08021490   0x00000044   Data   RO          677    .conststring        stm32f4xx_exti.o
    0x080214d4   0x00000044   Data   RO          728    .conststring        stm32f4xx_gpio.o
    0x08021518   0x00000043   Data   RO          828    .conststring        stm32f4xx_pwr.o
    0x0802155b   0x00000001   PAD
    0x0802155c   0x00000043   Data   RO          845    .conststring        stm32f4xx_rcc.o
    0x0802159f   0x00000001   PAD
    0x080215a0   0x00000043   Data   RO          881    .conststring        stm32f4xx_rtc.o
    0x080215e3   0x00000001   PAD
    0x080215e4   0x00000044   Data   RO          898    .conststring        stm32f4xx_sdio.o
    0x08021628   0x00000043   Data   RO          915    .conststring        stm32f4xx_spi.o
    0x0802166b   0x00000001   PAD
    0x0802166c   0x00000045   Data   RO          966    .conststring        stm32f4xx_usart.o
    0x080216b1   0x00000003   PAD
    0x080216b4   0x000000ed   Data   RO         1117    .conststring        mem.o
    0x080217a1   0x00000003   PAD
    0x080217a4   0x00000006   Data   RO         1481    .conststring        devfs.o
    0x080217aa   0x00000002   PAD
    0x080217ac   0x000001ed   Data   RO         1678    .conststring        cmd.o
    0x08021999   0x00000003   PAD
    0x0802199c   0x000000f3   Data   RO         1737    .conststring        finsh_error.o
    0x08021a8f   0x00000001   PAD
    0x08021a90   0x0000003e   Data   RO         1836    .conststring        finsh_token.o
    0x08021ace   0x00000002   PAD
    0x08021ad0   0x00000004   Data   RO         1947    .rti_fn.0           components.o
    0x08021ad4   0x00000004   Data   RO          273    .rti_fn.1           platform.o
    0x08021ad8   0x00000004   Data   RO          307    .rti_fn.1           usart.o
    0x08021adc   0x00000004   Data   RO         1948    .rti_fn.1.post      components.o
    0x08021ae0   0x00000004   Data   RO          434    .rti_fn.2           stm32f4_rtc.o
    0x08021ae4   0x00000004   Data   RO         1173    .rti_fn.3           module.o
    0x08021ae8   0x00000004   Data   RO         1342    .rti_fn.3           dfs.o
    0x08021aec   0x00000004   Data   RO         1918    .rti_fn.3           shell.o
    0x08021af0   0x00000004   Data   RO         1421    .rti_fn.4           dfs_elm.o
    0x08021af4   0x00000004   Data   RO         1482    .rti_fn.4           devfs.o
    0x08021af8   0x00000004   Data   RO         1365    .rti_fn.5           dfs_fs.o
    0x08021afc   0x00000004   Data   RO         1465    .rti_fn.6           ccfile.o
    0x08021b00   0x00000004   Data   RO         1949    .rti_fn.7           components.o
    0x08021b04   0x0000000c   Data   RO          238    FSymTab             board.o
    0x08021b10   0x0000000c   Data   RO         1119    FSymTab             mem.o
    0x08021b1c   0x0000000c   Data   RO         1174    FSymTab             module.o
    0x08021b28   0x00000018   Data   RO         1366    FSymTab             dfs_fs.o
    0x08021b40   0x00000030   Data   RO         1383    FSymTab             dfs_file.o
    0x08021b70   0x00000018   Data   RO         1402    FSymTab             dfs_posix.o
    0x08021b88   0x00000024   Data   RO         1516    FSymTab             rtc.o
    0x08021bac   0x000000b4   Data   RO         1680    FSymTab             cmd.o
    0x08021c60   0x00000010   Data   RO         1008    RTMSymTab           clock.o
    0x08021c70   0x00000050   Data   RO         1024    RTMSymTab           device.o
    0x08021cc0   0x00000130   Data   RO         1061    RTMSymTab           ipc.o
    0x08021df0   0x00000028   Data   RO         1082    RTMSymTab           irq.o
    0x08021e18   0x000000c8   Data   RO         1100    RTMSymTab           kservice.o
    0x08021ee0   0x00000020   Data   RO         1120    RTMSymTab           mem.o
    0x08021f00   0x00000028   Data   RO         1136    RTMSymTab           memheap.o
    0x08021f28   0x00000030   Data   RO         1153    RTMSymTab           mempool.o
    0x08021f58   0x00000008   Data   RO         1204    RTMSymTab           object.o
    0x08021f60   0x00000068   Data   RO         1245    RTMSymTab           thread.o
    0x08021fc8   0x00000038   Data   RO         1266    RTMSymTab           timer.o
    0x08022000   0x000000a0   Data   RO         1403    RTMSymTab           dfs_posix.o
    0x080220a0   0x00000028   Data   RO         1596    RTMSymTab           dataqueue.o
    0x080220c8   0x00000020   Data   RO         1618    RTMSymTab           pipe.o
    0x080220e8   0x00000020   Data   RO         1640    RTMSymTab           portal.o
    0x08022108   0x00000038   Data   RO         1656    RTMSymTab           ringbuffer.o
    0x08022140   0x00000020   Data   RO         2333    Region$$Table       anon$$obj.o
    0x08022160   0x00000010   Data   RO         1681    VSymTab             cmd.o
    0x08022170   0x00000110   Data   RO         2043    locale$$data        c_w.l(lc_ctype_c.o)
    0x08022280   0x00000180   Data   RO         2046    locale$$data        c_w.l(lc_time_c.o)
    0x08022400   0x0000001c   Data   RO         2261    locale$$data        c_w.l(lc_numeric_c.o)


    Execution Region RW_IRAM1 (Base: 0x20000000, Size: 0x00002f60, Max: 0x00020000, ABSOLUTE, COMPRESSED[0x000000f8])

    Base Addr    Size         Type   Attr      Idx    E Section Name        Object

    0x20000000   0x00000018   Data   RW          272    .data               platform.o
    0x20000018   0x0000000c   Data   RW          306    .data               usart.o
    0x20000024   0x00000018   Data   RW          370    .data               sdio_sd.o
    0x2000003c   0x00000008   Data   RW          392    .data               stm32f20x_40x_spi.o
    0x20000044   0x00000064   Data   RW          433    .data               stm32f4_rtc.o
    0x200000a8   0x00000014   Data   RW          456    .data               system_stm32f4xx.o
    0x200000bc   0x00000010   Data   RW          846    .data               stm32f4xx_rcc.o
    0x200000cc   0x00000004   Data   RW         1007    .data               clock.o
    0x200000d0   0x00000004   Data   RW         1042    .data               idle.o
    0x200000d4   0x00000001   Data   RW         1081    .data               irq.o
    0x200000d5   0x00000003   PAD
    0x200000d8   0x00000008   Data   RW         1099    .data               kservice.o
    0x200000e0   0x00000020   Data   RW         1118    .data               mem.o
    0x20000100   0x00000008   Data   RW         1152    .data               mempool.o
    0x20000108   0x00000014   Data   RW         1172    .data               module.o
    0x2000011c   0x000000c4   Data   RW         1203    .data               object.o
    0x200001e0   0x0000001c   Data   RW         1225    .data               scheduler.o
    0x200001fc   0x0000000c   Data   RW         1265    .data               timer.o
    0x20000208   0x00000010   Data   RW         1286    .data               cpuport.o
    0x20000218   0x00000100   Data   RW         1341    .data               dfs.o
    0x20000318   0x00000008   Data   RW         1420    .data               dfs_elm.o
    0x20000320   0x0000000a   Data   RW         1449    .data               ff.o
    0x2000032a   0x00000002   PAD
    0x2000032c   0x00000008   Data   RW         1464    .data               ccfile.o
    0x20000334   0x00000004   Data   RW         1515    .data               rtc.o
    0x20000338   0x00000004   Data   RW         1679    .data               cmd.o
    0x2000033c   0x00000008   Data   RW         1700    .data               finsh_compiler.o
    0x20000344   0x00000040   Data   RW         1738    .data               finsh_error.o
    0x20000384   0x00000008   Data   RW         1754    .data               finsh_heap.o
    0x2000038c   0x00000004   Data   RW         1851    .data               finsh_var.o
    0x20000390   0x0000000c   Data   RW         1874    .data               finsh_vm.o
    0x2000039c   0x00000085   Data   RW         1917    .data               shell.o
    0x20000421   0x00000003   PAD
    0x20000424   0x00000010   Data   RW         1933    .data               symbol.o
    0x20000434   0x00000168   Zero   RW          271    .bss                platform.o
    0x2000059c   0x000000c4   Zero   RW          304    .bss                usart.o
    0x20000660   0x0000053c   Zero   RW          368    .bss                sdio_sd.o
    0x20000b9c   0x0000007c   Zero   RW          409    .bss                spi_flash_w25qxx.o
    0x20000c18   0x00000044   Zero   RW          431    .bss                stm32f4_rtc.o
    0x20000c5c   0x00000288   Zero   RW         1040    .bss                idle.o
    0x20000ee4   0x00000080   Zero   RW         1097    .bss                kservice.o
    0x20000f64   0x00000024   Zero   RW         1115    .bss                mem.o
    0x20000f88   0x00000100   Zero   RW         1223    .bss                scheduler.o
    0x20001088   0x00000258   Zero   RW         1339    .bss                dfs.o
    0x200012e0   0x00000124   Zero   RW         1381    .bss                dfs_file.o
    0x20001404   0x00000080   Zero   RW         1753    .bss                finsh_heap.o
    0x20001484   0x00000140   Zero   RW         1787    .bss                finsh_node.o
    0x200015c4   0x000000c0   Zero   RW         1850    .bss                finsh_var.o
    0x20001684   0x00000180   Zero   RW         1873    .bss                finsh_vm.o
    0x20001804   0x00001088   Zero   RW         1915    .bss                shell.o
    0x2000288c   0x0000002c   Zero   RW         1986    .bss                c_w.l(localtime.o)
    0x200028b8   0x00000044   Zero   RW         2003    .bss                c_w.l(asctime.o)
    0x200028fc   0x00000060   Zero   RW         2009    .bss                c_w.l(libspace.o)
    0x2000295c   0x00000004   PAD
    0x20002960   0x00000200   Zero   RW          999    HEAP                startup_stm32f4xx.o
    0x20002b60   0x00000400   Zero   RW          998    STACK               startup_stm32f4xx.o


==============================================================================

Image component sizes


      Code (inc. data)   RO Data    RW Data    ZI Data      Debug   Object Name

        64         10          0          0          0     307586   application.o
       940         46         24          0          0      22677   board.o
       340        162        964          8          0       2433   ccfile.o
       100          6         53          4          0       2406   clock.o
      3792       1484       1321          4          0      12712   cmd.o
        64         12         12          0          0       1886   components.o
       272         24          0          0          0        860   context_rvds.o
       448        220         19         16          0       3955   cpuport.o
      1220        144        210          0          0       7752   dataqueue.o
      1028        122        180          0          0       5766   devfs.o
      1080        166        435          0          0       7407   device.o
       980        122         39        256        600       9055   dfs.o
      2952        260        189          8          0      17981   dfs_elm.o
      1756        192        163          0        292       7631   dfs_file.o
      1728        324         98          0          0       6134   dfs_fs.o
      1476         12        381          0          0      10529   dfs_posix.o
     12512        130         58         10          0      31237   ff.o
      6136        156          0          8          0      11186   finsh_compiler.o
        44         10        243         64          0       1889   finsh_error.o
       528         18          0          8        128       3615   finsh_heap.o
        88          6          0          0          0       1804   finsh_init.o
       388          4          0          0        320       3636   finsh_node.o
      2780         36        196          0          0       9092   finsh_ops.o
      2428         32          0          0          0       9981   finsh_parser.o
      1604         18        126          0          0       6156   finsh_token.o
       412         18          0          4        192       7677   finsh_var.o
       228         34          0         12        384       7346   finsh_vm.o
       412        106         22          4        648       3199   idle.o
      6316        394       1287          0          0      27393   ipc.o
        72          6        147          1          0       2463   irq.o
      2484        170        813          8        128      14953   kservice.o
      2484        592        429         32         36       6761   mem.o
      1572        204        212          0          0       5437   memheap.o
      1088        116        183          8          0       6504   mempool.o
       504         86          0          0          0       2253   misc.o
         0          0         84          0          0       5718   mnttable.o
      5036        612        177         20          0      17462   module.o
       904        184        128        196          0       6479   object.o
      1302        204        177          0          0       8345   pipe.o
       440         82          4         24        360       4287   platform.o
       884        176        194          0          0       5809   portal.o
      1344         90        358          0          0       7986   ringbuffer.o
       316         14        153          4          0       4226   rtc.o
       812        180         78         28        256       4867   scheduler.o
      7596        490         18         24       1340      28699   sdio_sd.o
      1496        214        134          0          0       6089   serial.o
      2076        274         81        133       4232       6322   shell.o
      1900        144        163          0          0       6474   spi_core.o
       920        204        217          0          0       4795   spi_dev.o
      1534        464         39          0        124       8100   spi_flash_w25qxx.o
       172         88          0          0          0       1439   startup.o
        64         26        392          0       1536        948   startup_stm32f4xx.o
       672         34          0          8          0       2913   stm32f20x_40x_spi.o
      1076        310         19        100         68       4485   stm32f4_rtc.o
      4968        316         67          0          0       9177   stm32f4xx_dma.o
       724         14         68          0          0       2935   stm32f4xx_exti.o
      2248         86         68          0          0       5637   stm32f4xx_gpio.o
       126          0          0          0          0       1596   stm32f4xx_it.o
       524         18         67          0          0       3012   stm32f4xx_pwr.o
      3324        218         67         16          0      13783   stm32f4xx_rcc.o
      5876         72         67          0          0      17660   stm32f4xx_rtc.o
      1564         38         68          0          0       8620   stm32f4xx_sdio.o
      2888         72         67          0          0       8765   stm32f4xx_spi.o
      3620        116         69          0          0      10304   stm32f4xx_usart.o
         0          0          0         16          0       4369   symbol.o
       528         46          0         20          0       2175   system_stm32f4xx.o
      1736        248        491          0          0      10477   thread.o
      1096        130        256         12          0       8066   timer.o
      1040        130         76         12        196      27341   usart.o

    ----------------------------------------------------------------------
    119132      10736      11705       1076      10840     858712   Object Totals
         0          0         32          0          0          0   (incl. Generated)
         6          0         22          8          0          0   (incl. Padding)

    ----------------------------------------------------------------------

      Code (inc. data)   RO Data    RW Data    ZI Data      Debug   Library Member Name

        90          0          0          0          0          0   __dczerorl2.o
         8          0          0          0          0         68   __main.o
       392          4         17          0          0         92   __printf_flags_ss_wp.o
        14          0          0          0          0         68   __printf_wp.o
         0          0          0          0          0          0   __rtentry.o
        12          0          0          0          0          0   __rtentry2.o
         6          0          0          0          0          0   __rtentry4.o
        52          8          0          0          0          0   __scatter.o
        28          0          0          0          0          0   __scatter_zi.o
        28          0          0          0          0         68   _chval.o
         0          0         12          0          0          0   _monlen.o
         6          0          0          0          0          0   _printf_a.o
         6          0          0          0          0          0   _printf_c.o
        44          0          0          0          0        108   _printf_char.o
        48          6          0          0          0         96   _printf_char_common.o
        40          0          0          0          0         68   _printf_charcount.o
         6          0          0          0          0          0   _printf_d.o
       120         16          0          0          0         92   _printf_dec.o
         6          0          0          0          0          0   _printf_e.o
         6          0          0          0          0          0   _printf_f.o
      1050          0          0          0          0        216   _printf_fp_dec.o
       764         10         38          0          0        100   _printf_fp_hex.o
       128         16          0          0          0         84   _printf_fp_infnan.o
         6          0          0          0          0          0   _printf_g.o
       148          4         40          0          0        160   _printf_hex_int_ll_ptr.o
         6          0          0          0          0          0   _printf_i.o
       178          0          0          0          0         88   _printf_intcommon.o
        10          0          0          0          0          0   _printf_l.o
         6          0          0          0          0          0   _printf_lc.o
        10          0          0          0          0          0   _printf_ll.o
         6          0          0          0          0          0   _printf_lld.o
         6          0          0          0          0          0   _printf_lli.o
         6          0          0          0          0          0   _printf_llo.o
         6          0          0          0          0          0   _printf_llu.o
         6          0          0          0          0          0   _printf_llx.o
       124         16          0          0          0         92   _printf_longlong_dec.o
         6          0          0          0          0          0   _printf_ls.o
         6          0          0          0          0          0   _printf_n.o
         6          0          0          0          0          0   _printf_o.o
       112          8          0          0          0        124   _printf_oct_int_ll.o
         6          0          0          0          0          0   _printf_p.o
        78          0          0          0          0        108   _printf_pad.o
         0          0          0          0          0          0   _printf_percent.o
         4          0          0          0          0          0   _printf_percent_end.o
         6          0          0          0          0          0   _printf_s.o
        82          0          0          0          0         80   _printf_str.o
        36          0          0          0          0         84   _printf_truncate.o
         6          0          0          0          0          0   _printf_u.o
        44          0          0          0          0        108   _printf_wchar.o
       188          6          8          0          0         92   _printf_wctomb.o
         6          0          0          0          0          0   _printf_x.o
        10          0          0          0          0         68   _sputc.o
       158          0          0          0          0         92   _strtoul.o
        64          0          0          0          0         92   _wcrtomb.o
        12          6          0          0         68         68   asctime.o
       104         30          0          0          0         88   asctime_internal.o
        26          0          0          0          0         80   atoi.o
       220          4        148          0          0         96   bigflt0.o
      1910        128          0          0          0        672   btod.o
        14          0          0          0          0         80   ctime.o
        18          0          0          0          0         80   exit.o
         6          0          0          0          0        152   heapauxi.o
         0          0          0          0          0          0   indicate_semi.o
        44         10        272          0          0         76   lc_ctype_c.o
        44         10         28          0          0         76   lc_numeric_c.o
        44         10        384          0          0         76   lc_time_c.o
         2          0          0          0          0          0   libinit.o
        44          0          0          0          0          0   libinit2.o
         2          0          0          0          0          0   libshutdown.o
         2          0          0          0          0          0   libshutdown2.o
         8          4          0          0         96         68   libspace.o
       138          0          0          0          0         80   lludiv10.o
        12          6          0          0         44         68   localtime.o
       184          6          0          0          0         80   localtime_internal.o
       424         10          0          0          0        124   mktime.o
        16          4          0          0          0         76   rt_ctype_table.o
         8          4          0          0          0         68   rt_errno_addr_intlibspace.o
         8          4          0          0          0         68   rt_locale_intlibspace.o
        68          0          0          0          0         68   rt_memclr.o
        78          0          0          0          0         80   rt_memclr_w.o
       138          0          0          0          0         68   rt_memcpy_v6.o
       100          0          0          0          0         80   rt_memcpy_w.o
         2          0          0          0          0          0   rtexit.o
        10          0          0          0          0          0   rtexit2.o
        44          6          0          0          0         84   sprintf.o
        24          0          0          0          0         68   strcat.o
        62          0          0          0          0         76   strlen.o
       150          0          0          0          0         80   strncmp.o
        86          0          0          0          0         76   strncpy.o
       112          0          0          0          0         88   strtol.o
        12          4          0          0          0         68   sys_exit.o
        74          0          0          0          0         80   sys_stackheap_outer.o
         2          0          0          0          0         68   use_no_semi.o
        10          0          0          0          0        116   fpinit.o
         4          0          0          0          0        116   printf1.o
         4          0          0          0          0        116   printf2.o
         0          0          0          0          0          0   usenofp.o
        48          0          0          0          0        124   fpclassify.o

    ----------------------------------------------------------------------
      8528        340        951          0        212       5880   Library Totals
        20          0          4          0          4          0   (incl. Padding)

    ----------------------------------------------------------------------

      Code (inc. data)   RO Data    RW Data    ZI Data      Debug   Library Name

      8442        340        947          0        208       5408   c_w.l
        18          0          0          0          0        348   fz_wm.l
        48          0          0          0          0        124   m_wm.l

    ----------------------------------------------------------------------
      8528        340        951          0        212       5880   Library Totals

    ----------------------------------------------------------------------

==============================================================================


      Code (inc. data)   RO Data    RW Data    ZI Data      Debug   

    127660      11076      12656       1076      11052     849624   Grand Totals
    127660      11076      12656        248      11052     849624   ELF Image Totals (compressed)
    127660      11076      12656        248          0          0   ROM Totals

==============================================================================

    Total RO  Size (Code + RO Data)               140316 ( 137.03kB)
    Total RW  Size (RW Data + ZI Data)             12128 (  11.84kB)
    Total ROM Size (Code + RO Data + RW Data)     140564 ( 137.27kB)

==============================================================================

